
bin/Release/BOB_motor.elf:     file format elf32-avr

Sections:
Idx Name          Size      VMA       LMA       File off  Algn
  0 .data         00000108  00800100  000016b2  00001726  2**0
                  CONTENTS, ALLOC, LOAD, DATA
  1 .text         000016b2  00000000  00000000  00000074  2**1
                  CONTENTS, ALLOC, LOAD, READONLY, CODE
  2 .bss          0000000c  00800208  000017ba  0000182e  2**0
                  ALLOC
  3 .stab         000006b4  00000000  00000000  00001830  2**2
                  CONTENTS, READONLY, DEBUGGING
  4 .stabstr      00000054  00000000  00000000  00001ee4  2**0
                  CONTENTS, READONLY, DEBUGGING
Disassembly of section .text:

00000000 <__vectors>:
       0:	0c 94 34 00 	jmp	0x68	; 0x68 <__ctors_end>
       4:	0c 94 51 00 	jmp	0xa2	; 0xa2 <__bad_interrupt>
       8:	0c 94 51 00 	jmp	0xa2	; 0xa2 <__bad_interrupt>
       c:	0c 94 51 00 	jmp	0xa2	; 0xa2 <__bad_interrupt>
      10:	0c 94 51 00 	jmp	0xa2	; 0xa2 <__bad_interrupt>
      14:	0c 94 51 00 	jmp	0xa2	; 0xa2 <__bad_interrupt>
      18:	0c 94 51 00 	jmp	0xa2	; 0xa2 <__bad_interrupt>
      1c:	0c 94 51 00 	jmp	0xa2	; 0xa2 <__bad_interrupt>
      20:	0c 94 51 00 	jmp	0xa2	; 0xa2 <__bad_interrupt>
      24:	0c 94 51 00 	jmp	0xa2	; 0xa2 <__bad_interrupt>
      28:	0c 94 51 00 	jmp	0xa2	; 0xa2 <__bad_interrupt>
      2c:	0c 94 51 00 	jmp	0xa2	; 0xa2 <__bad_interrupt>
      30:	0c 94 51 00 	jmp	0xa2	; 0xa2 <__bad_interrupt>
      34:	0c 94 51 00 	jmp	0xa2	; 0xa2 <__bad_interrupt>
      38:	0c 94 51 00 	jmp	0xa2	; 0xa2 <__bad_interrupt>
      3c:	0c 94 51 00 	jmp	0xa2	; 0xa2 <__bad_interrupt>
      40:	0c 94 51 00 	jmp	0xa2	; 0xa2 <__bad_interrupt>
      44:	0c 94 51 00 	jmp	0xa2	; 0xa2 <__bad_interrupt>
      48:	0c 94 51 00 	jmp	0xa2	; 0xa2 <__bad_interrupt>
      4c:	0c 94 51 00 	jmp	0xa2	; 0xa2 <__bad_interrupt>
      50:	0c 94 51 00 	jmp	0xa2	; 0xa2 <__bad_interrupt>
      54:	0c 94 53 00 	jmp	0xa6	; 0xa6 <__vector_21>
      58:	0c 94 51 00 	jmp	0xa2	; 0xa2 <__bad_interrupt>
      5c:	0c 94 51 00 	jmp	0xa2	; 0xa2 <__bad_interrupt>
      60:	0c 94 51 00 	jmp	0xa2	; 0xa2 <__bad_interrupt>
      64:	0c 94 51 00 	jmp	0xa2	; 0xa2 <__bad_interrupt>

00000068 <__ctors_end>:
      68:	11 24       	eor	r1, r1
      6a:	1f be       	out	0x3f, r1	; 63
      6c:	cf ef       	ldi	r28, 0xFF	; 255
      6e:	d8 e0       	ldi	r29, 0x08	; 8
      70:	de bf       	out	0x3e, r29	; 62
      72:	cd bf       	out	0x3d, r28	; 61

00000074 <__do_copy_data>:
      74:	12 e0       	ldi	r17, 0x02	; 2
      76:	a0 e0       	ldi	r26, 0x00	; 0
      78:	b1 e0       	ldi	r27, 0x01	; 1
      7a:	e2 eb       	ldi	r30, 0xB2	; 178
      7c:	f6 e1       	ldi	r31, 0x16	; 22
      7e:	02 c0       	rjmp	.+4      	; 0x84 <.do_copy_data_start>

00000080 <.do_copy_data_loop>:
      80:	05 90       	lpm	r0, Z+
      82:	0d 92       	st	X+, r0

00000084 <.do_copy_data_start>:
      84:	a8 30       	cpi	r26, 0x08	; 8
      86:	b1 07       	cpc	r27, r17
      88:	d9 f7       	brne	.-10     	; 0x80 <.do_copy_data_loop>

0000008a <__do_clear_bss>:
      8a:	12 e0       	ldi	r17, 0x02	; 2
      8c:	a8 e0       	ldi	r26, 0x08	; 8
      8e:	b2 e0       	ldi	r27, 0x02	; 2
      90:	01 c0       	rjmp	.+2      	; 0x94 <.do_clear_bss_start>

00000092 <.do_clear_bss_loop>:
      92:	1d 92       	st	X+, r1

00000094 <.do_clear_bss_start>:
      94:	a4 31       	cpi	r26, 0x14	; 20
      96:	b1 07       	cpc	r27, r17
      98:	e1 f7       	brne	.-8      	; 0x92 <.do_clear_bss_loop>
      9a:	0e 94 d0 00 	call	0x1a0	; 0x1a0 <main>
      9e:	0c 94 57 0b 	jmp	0x16ae	; 0x16ae <_exit>

000000a2 <__bad_interrupt>:
      a2:	0c 94 00 00 	jmp	0	; 0x0 <__heap_end>

000000a6 <__vector_21>:
      a6:	1f 92       	push	r1
      a8:	0f 92       	push	r0
      aa:	0f b6       	in	r0, 0x3f	; 63
      ac:	0f 92       	push	r0
      ae:	11 24       	eor	r1, r1
      b0:	0f 90       	pop	r0
      b2:	0f be       	out	0x3f, r0	; 63
      b4:	0f 90       	pop	r0
      b6:	1f 90       	pop	r1
      b8:	18 95       	reti

000000ba <adc_start>:
      ba:	aa e7       	ldi	r26, 0x7A	; 122
      bc:	b0 e0       	ldi	r27, 0x00	; 0
      be:	8c 91       	ld	r24, X
      c0:	87 60       	ori	r24, 0x07	; 7
      c2:	8c 93       	st	X, r24
      c4:	ec e7       	ldi	r30, 0x7C	; 124
      c6:	f0 e0       	ldi	r31, 0x00	; 0
      c8:	80 81       	ld	r24, Z
      ca:	80 64       	ori	r24, 0x40	; 64
      cc:	80 83       	st	Z, r24
      ce:	80 81       	ld	r24, Z
      d0:	80 62       	ori	r24, 0x20	; 32
      d2:	80 83       	st	Z, r24
      d4:	8c 91       	ld	r24, X
      d6:	80 62       	ori	r24, 0x20	; 32
      d8:	8c 93       	st	X, r24
      da:	8c 91       	ld	r24, X
      dc:	80 68       	ori	r24, 0x80	; 128
      de:	8c 93       	st	X, r24
      e0:	8c 91       	ld	r24, X
      e2:	88 60       	ori	r24, 0x08	; 8
      e4:	8c 93       	st	X, r24
      e6:	78 94       	sei
      e8:	ea e7       	ldi	r30, 0x7A	; 122
      ea:	f0 e0       	ldi	r31, 0x00	; 0
      ec:	80 81       	ld	r24, Z
      ee:	80 64       	ori	r24, 0x40	; 64
      f0:	80 83       	st	Z, r24
      f2:	08 95       	ret

000000f4 <portB_out>:
      f4:	38 2f       	mov	r19, r24
      f6:	67 2b       	or	r22, r23
      f8:	59 f0       	breq	.+22     	; 0x110 <portB_out+0x1c>
      fa:	25 b1       	in	r18, 0x05	; 5
      fc:	81 e0       	ldi	r24, 0x01	; 1
      fe:	90 e0       	ldi	r25, 0x00	; 0
     100:	02 c0       	rjmp	.+4      	; 0x106 <portB_out+0x12>
     102:	88 0f       	add	r24, r24
     104:	99 1f       	adc	r25, r25
     106:	3a 95       	dec	r19
     108:	e2 f7       	brpl	.-8      	; 0x102 <portB_out+0xe>
     10a:	28 2b       	or	r18, r24
     10c:	25 b9       	out	0x05, r18	; 5
     10e:	08 95       	ret
     110:	25 b1       	in	r18, 0x05	; 5
     112:	81 e0       	ldi	r24, 0x01	; 1
     114:	90 e0       	ldi	r25, 0x00	; 0
     116:	02 c0       	rjmp	.+4      	; 0x11c <portB_out+0x28>
     118:	88 0f       	add	r24, r24
     11a:	99 1f       	adc	r25, r25
     11c:	3a 95       	dec	r19
     11e:	e2 f7       	brpl	.-8      	; 0x118 <portB_out+0x24>
     120:	80 95       	com	r24
     122:	82 23       	and	r24, r18
     124:	85 b9       	out	0x05, r24	; 5
     126:	08 95       	ret

00000128 <portD_out>:
     128:	38 2f       	mov	r19, r24
     12a:	67 2b       	or	r22, r23
     12c:	59 f0       	breq	.+22     	; 0x144 <portD_out+0x1c>
     12e:	2b b1       	in	r18, 0x0b	; 11
     130:	81 e0       	ldi	r24, 0x01	; 1
     132:	90 e0       	ldi	r25, 0x00	; 0
     134:	02 c0       	rjmp	.+4      	; 0x13a <portD_out+0x12>
     136:	88 0f       	add	r24, r24
     138:	99 1f       	adc	r25, r25
     13a:	3a 95       	dec	r19
     13c:	e2 f7       	brpl	.-8      	; 0x136 <portD_out+0xe>
     13e:	28 2b       	or	r18, r24
     140:	2b b9       	out	0x0b, r18	; 11
     142:	08 95       	ret
     144:	2b b1       	in	r18, 0x0b	; 11
     146:	81 e0       	ldi	r24, 0x01	; 1
     148:	90 e0       	ldi	r25, 0x00	; 0
     14a:	02 c0       	rjmp	.+4      	; 0x150 <portD_out+0x28>
     14c:	88 0f       	add	r24, r24
     14e:	99 1f       	adc	r25, r25
     150:	3a 95       	dec	r19
     152:	e2 f7       	brpl	.-8      	; 0x14c <portD_out+0x24>
     154:	80 95       	com	r24
     156:	82 23       	and	r24, r18
     158:	8b b9       	out	0x0b, r24	; 11
     15a:	08 95       	ret

0000015c <inputB>:
     15c:	38 2f       	mov	r19, r24
     15e:	67 2b       	or	r22, r23
     160:	59 f0       	breq	.+22     	; 0x178 <inputB+0x1c>
     162:	24 b1       	in	r18, 0x04	; 4
     164:	81 e0       	ldi	r24, 0x01	; 1
     166:	90 e0       	ldi	r25, 0x00	; 0
     168:	02 c0       	rjmp	.+4      	; 0x16e <inputB+0x12>
     16a:	88 0f       	add	r24, r24
     16c:	99 1f       	adc	r25, r25
     16e:	3a 95       	dec	r19
     170:	e2 f7       	brpl	.-8      	; 0x16a <inputB+0xe>
     172:	28 2b       	or	r18, r24
     174:	24 b9       	out	0x04, r18	; 4
     176:	08 95       	ret
     178:	84 b1       	in	r24, 0x04	; 4
     17a:	84 b9       	out	0x04, r24	; 4
     17c:	08 95       	ret

0000017e <inputD>:
     17e:	38 2f       	mov	r19, r24
     180:	67 2b       	or	r22, r23
     182:	59 f0       	breq	.+22     	; 0x19a <inputD+0x1c>
     184:	2a b1       	in	r18, 0x0a	; 10
     186:	81 e0       	ldi	r24, 0x01	; 1
     188:	90 e0       	ldi	r25, 0x00	; 0
     18a:	02 c0       	rjmp	.+4      	; 0x190 <inputD+0x12>
     18c:	88 0f       	add	r24, r24
     18e:	99 1f       	adc	r25, r25
     190:	3a 95       	dec	r19
     192:	e2 f7       	brpl	.-8      	; 0x18c <inputD+0xe>
     194:	28 2b       	or	r18, r24
     196:	2a b9       	out	0x0a, r18	; 10
     198:	08 95       	ret
     19a:	8a b1       	in	r24, 0x0a	; 10
     19c:	8a b9       	out	0x0a, r24	; 10
     19e:	08 95       	ret

000001a0 <main>:
     1a0:	0e 94 eb 00 	call	0x1d6	; 0x1d6 <pwm_setup>
     1a4:	0e 94 5d 00 	call	0xba	; 0xba <adc_start>
     1a8:	52 9a       	sbi	0x0a, 2	; 10
     1aa:	53 9a       	sbi	0x0a, 3	; 10
     1ac:	54 9a       	sbi	0x0a, 4	; 10
     1ae:	55 9a       	sbi	0x0a, 5	; 10
     1b0:	82 e0       	ldi	r24, 0x02	; 2
     1b2:	90 e0       	ldi	r25, 0x00	; 0
     1b4:	61 e0       	ldi	r22, 0x01	; 1
     1b6:	70 e0       	ldi	r23, 0x00	; 0
     1b8:	0e 94 94 00 	call	0x128	; 0x128 <portD_out>
     1bc:	8f ef       	ldi	r24, 0xFF	; 255
     1be:	90 e0       	ldi	r25, 0x00	; 0
     1c0:	64 e1       	ldi	r22, 0x14	; 20
     1c2:	70 e0       	ldi	r23, 0x00	; 0
     1c4:	0e 94 24 01 	call	0x248	; 0x248 <pwm_ramp1A>
     1c8:	83 e0       	ldi	r24, 0x03	; 3
     1ca:	90 e0       	ldi	r25, 0x00	; 0
     1cc:	61 e0       	ldi	r22, 0x01	; 1
     1ce:	70 e0       	ldi	r23, 0x00	; 0
     1d0:	0e 94 94 00 	call	0x128	; 0x128 <portD_out>
     1d4:	f9 cf       	rjmp	.-14     	; 0x1c8 <main+0x28>

000001d6 <pwm_setup>:
     1d6:	e1 e8       	ldi	r30, 0x81	; 129
     1d8:	f0 e0       	ldi	r31, 0x00	; 0
     1da:	80 81       	ld	r24, Z
     1dc:	83 60       	ori	r24, 0x03	; 3
     1de:	80 83       	st	Z, r24
     1e0:	e0 e8       	ldi	r30, 0x80	; 128
     1e2:	f0 e0       	ldi	r31, 0x00	; 0
     1e4:	80 81       	ld	r24, Z
     1e6:	81 60       	ori	r24, 0x01	; 1
     1e8:	80 83       	st	Z, r24
     1ea:	21 9a       	sbi	0x04, 1	; 4
     1ec:	22 9a       	sbi	0x04, 2	; 4
     1ee:	10 92 09 02 	sts	0x0209, r1
     1f2:	10 92 08 02 	sts	0x0208, r1
     1f6:	10 92 0b 02 	sts	0x020B, r1
     1fa:	10 92 0a 02 	sts	0x020A, r1
     1fe:	10 92 13 02 	sts	0x0213, r1
     202:	10 92 12 02 	sts	0x0212, r1
     206:	10 92 0f 02 	sts	0x020F, r1
     20a:	10 92 0e 02 	sts	0x020E, r1
     20e:	10 92 11 02 	sts	0x0211, r1
     212:	10 92 10 02 	sts	0x0210, r1
     216:	10 92 0d 02 	sts	0x020D, r1
     21a:	10 92 0c 02 	sts	0x020C, r1
     21e:	08 95       	ret

00000220 <pwm1A>:
     220:	e0 e8       	ldi	r30, 0x80	; 128
     222:	f0 e0       	ldi	r31, 0x00	; 0
     224:	20 81       	ld	r18, Z
     226:	20 68       	ori	r18, 0x80	; 128
     228:	20 83       	st	Z, r18
     22a:	90 93 89 00 	sts	0x0089, r25
     22e:	80 93 88 00 	sts	0x0088, r24
     232:	08 95       	ret

00000234 <pwm1B>:
     234:	e0 e8       	ldi	r30, 0x80	; 128
     236:	f0 e0       	ldi	r31, 0x00	; 0
     238:	20 81       	ld	r18, Z
     23a:	20 62       	ori	r18, 0x20	; 32
     23c:	20 83       	st	Z, r18
     23e:	90 93 8b 00 	sts	0x008B, r25
     242:	80 93 8a 00 	sts	0x008A, r24
     246:	08 95       	ret

00000248 <pwm_ramp1A>:
     248:	6f 92       	push	r6
     24a:	7f 92       	push	r7
     24c:	8f 92       	push	r8
     24e:	9f 92       	push	r9
     250:	af 92       	push	r10
     252:	bf 92       	push	r11
     254:	cf 92       	push	r12
     256:	df 92       	push	r13
     258:	ef 92       	push	r14
     25a:	ff 92       	push	r15
     25c:	0f 93       	push	r16
     25e:	1f 93       	push	r17
     260:	cf 93       	push	r28
     262:	df 93       	push	r29
     264:	6c 01       	movw	r12, r24
     266:	00 97       	sbiw	r24, 0x00	; 0
     268:	19 f4       	brne	.+6      	; 0x270 <pwm_ramp1A+0x28>
     26a:	21 e0       	ldi	r18, 0x01	; 1
     26c:	c2 2e       	mov	r12, r18
     26e:	d1 2c       	mov	r13, r1
     270:	80 91 12 02 	lds	r24, 0x0212
     274:	90 91 13 02 	lds	r25, 0x0213
     278:	8c 15       	cp	r24, r12
     27a:	9d 05       	cpc	r25, r13
     27c:	08 f0       	brcs	.+2      	; 0x280 <pwm_ramp1A+0x38>
     27e:	62 c0       	rjmp	.+196    	; 0x344 <pwm_ramp1A+0xfc>
     280:	80 91 80 00 	lds	r24, 0x0080
     284:	80 68       	ori	r24, 0x80	; 128
     286:	80 93 80 00 	sts	0x0080, r24
     28a:	c0 91 12 02 	lds	r28, 0x0212
     28e:	d0 91 13 02 	lds	r29, 0x0213
     292:	cc 16       	cp	r12, r28
     294:	dd 06       	cpc	r13, r29
     296:	08 f4       	brcc	.+2      	; 0x29a <pwm_ramp1A+0x52>
     298:	42 c0       	rjmp	.+132    	; 0x31e <pwm_ramp1A+0xd6>
     29a:	80 e0       	ldi	r24, 0x00	; 0
     29c:	90 e0       	ldi	r25, 0x00	; 0
     29e:	0e 94 b2 08 	call	0x1164	; 0x1164 <__floatunsisf>
     2a2:	3b 01       	movw	r6, r22
     2a4:	4c 01       	movw	r8, r24
     2a6:	20 e0       	ldi	r18, 0x00	; 0
     2a8:	30 e0       	ldi	r19, 0x00	; 0
     2aa:	4a e7       	ldi	r20, 0x7A	; 122
     2ac:	55 e4       	ldi	r21, 0x45	; 69
     2ae:	0e 94 d4 06 	call	0xda8	; 0xda8 <__mulsf3>
     2b2:	7b 01       	movw	r14, r22
     2b4:	8c 01       	movw	r16, r24
     2b6:	90 e9       	ldi	r25, 0x90	; 144
     2b8:	a9 2e       	mov	r10, r25
     2ba:	91 e0       	ldi	r25, 0x01	; 1
     2bc:	b9 2e       	mov	r11, r25
     2be:	d0 93 89 00 	sts	0x0089, r29
     2c2:	c0 93 88 00 	sts	0x0088, r28
     2c6:	21 96       	adiw	r28, 0x01	; 1
     2c8:	c8 01       	movw	r24, r16
     2ca:	b7 01       	movw	r22, r14
     2cc:	20 e0       	ldi	r18, 0x00	; 0
     2ce:	30 e0       	ldi	r19, 0x00	; 0
     2d0:	40 e8       	ldi	r20, 0x80	; 128
     2d2:	5f e3       	ldi	r21, 0x3F	; 63
     2d4:	0e 94 2e 08 	call	0x105c	; 0x105c <__ltsf2>
     2d8:	88 23       	and	r24, r24
     2da:	0c f4       	brge	.+2      	; 0x2de <pwm_ramp1A+0x96>
     2dc:	99 c0       	rjmp	.+306    	; 0x410 <pwm_ramp1A+0x1c8>
     2de:	c8 01       	movw	r24, r16
     2e0:	b7 01       	movw	r22, r14
     2e2:	20 e0       	ldi	r18, 0x00	; 0
     2e4:	3f ef       	ldi	r19, 0xFF	; 255
     2e6:	4f e7       	ldi	r20, 0x7F	; 127
     2e8:	57 e4       	ldi	r21, 0x47	; 71
     2ea:	0e 94 ce 07 	call	0xf9c	; 0xf9c <__gtsf2>
     2ee:	18 16       	cp	r1, r24
     2f0:	0c f0       	brlt	.+2      	; 0x2f4 <pwm_ramp1A+0xac>
     2f2:	76 c0       	rjmp	.+236    	; 0x3e0 <pwm_ramp1A+0x198>
     2f4:	c4 01       	movw	r24, r8
     2f6:	b3 01       	movw	r22, r6
     2f8:	20 e0       	ldi	r18, 0x00	; 0
     2fa:	30 e0       	ldi	r19, 0x00	; 0
     2fc:	40 e2       	ldi	r20, 0x20	; 32
     2fe:	51 e4       	ldi	r21, 0x41	; 65
     300:	0e 94 d4 06 	call	0xda8	; 0xda8 <__mulsf3>
     304:	0e 94 fe 04 	call	0x9fc	; 0x9fc <__fixunssfsi>
     308:	cb 01       	movw	r24, r22
     30a:	67 2b       	or	r22, r23
     30c:	29 f0       	breq	.+10     	; 0x318 <pwm_ramp1A+0xd0>
     30e:	f5 01       	movw	r30, r10
     310:	31 97       	sbiw	r30, 0x01	; 1
     312:	f1 f7       	brne	.-4      	; 0x310 <pwm_ramp1A+0xc8>
     314:	01 97       	sbiw	r24, 0x01	; 1
     316:	d9 f7       	brne	.-10     	; 0x30e <pwm_ramp1A+0xc6>
     318:	cc 16       	cp	r12, r28
     31a:	dd 06       	cpc	r13, r29
     31c:	80 f6       	brcc	.-96     	; 0x2be <pwm_ramp1A+0x76>
     31e:	d0 92 13 02 	sts	0x0213, r13
     322:	c0 92 12 02 	sts	0x0212, r12
     326:	df 91       	pop	r29
     328:	cf 91       	pop	r28
     32a:	1f 91       	pop	r17
     32c:	0f 91       	pop	r16
     32e:	ff 90       	pop	r15
     330:	ef 90       	pop	r14
     332:	df 90       	pop	r13
     334:	cf 90       	pop	r12
     336:	bf 90       	pop	r11
     338:	af 90       	pop	r10
     33a:	9f 90       	pop	r9
     33c:	8f 90       	pop	r8
     33e:	7f 90       	pop	r7
     340:	6f 90       	pop	r6
     342:	08 95       	ret
     344:	80 91 80 00 	lds	r24, 0x0080
     348:	80 68       	ori	r24, 0x80	; 128
     34a:	80 93 80 00 	sts	0x0080, r24
     34e:	c0 91 12 02 	lds	r28, 0x0212
     352:	d0 91 13 02 	lds	r29, 0x0213
     356:	cc 15       	cp	r28, r12
     358:	dd 05       	cpc	r29, r13
     35a:	08 f3       	brcs	.-62     	; 0x31e <pwm_ramp1A+0xd6>
     35c:	80 e0       	ldi	r24, 0x00	; 0
     35e:	90 e0       	ldi	r25, 0x00	; 0
     360:	0e 94 b2 08 	call	0x1164	; 0x1164 <__floatunsisf>
     364:	3b 01       	movw	r6, r22
     366:	4c 01       	movw	r8, r24
     368:	20 e0       	ldi	r18, 0x00	; 0
     36a:	30 e0       	ldi	r19, 0x00	; 0
     36c:	4a e7       	ldi	r20, 0x7A	; 122
     36e:	55 e4       	ldi	r21, 0x45	; 69
     370:	0e 94 d4 06 	call	0xda8	; 0xda8 <__mulsf3>
     374:	7b 01       	movw	r14, r22
     376:	8c 01       	movw	r16, r24
     378:	80 e9       	ldi	r24, 0x90	; 144
     37a:	a8 2e       	mov	r10, r24
     37c:	81 e0       	ldi	r24, 0x01	; 1
     37e:	b8 2e       	mov	r11, r24
     380:	d0 93 89 00 	sts	0x0089, r29
     384:	c0 93 88 00 	sts	0x0088, r28
     388:	21 97       	sbiw	r28, 0x01	; 1
     38a:	c8 01       	movw	r24, r16
     38c:	b7 01       	movw	r22, r14
     38e:	20 e0       	ldi	r18, 0x00	; 0
     390:	30 e0       	ldi	r19, 0x00	; 0
     392:	40 e8       	ldi	r20, 0x80	; 128
     394:	5f e3       	ldi	r21, 0x3F	; 63
     396:	0e 94 2e 08 	call	0x105c	; 0x105c <__ltsf2>
     39a:	88 23       	and	r24, r24
     39c:	0c f4       	brge	.+2      	; 0x3a0 <pwm_ramp1A+0x158>
     39e:	3b c0       	rjmp	.+118    	; 0x416 <pwm_ramp1A+0x1ce>
     3a0:	c8 01       	movw	r24, r16
     3a2:	b7 01       	movw	r22, r14
     3a4:	20 e0       	ldi	r18, 0x00	; 0
     3a6:	3f ef       	ldi	r19, 0xFF	; 255
     3a8:	4f e7       	ldi	r20, 0x7F	; 127
     3aa:	57 e4       	ldi	r21, 0x47	; 71
     3ac:	0e 94 ce 07 	call	0xf9c	; 0xf9c <__gtsf2>
     3b0:	18 16       	cp	r1, r24
     3b2:	14 f5       	brge	.+68     	; 0x3f8 <pwm_ramp1A+0x1b0>
     3b4:	c4 01       	movw	r24, r8
     3b6:	b3 01       	movw	r22, r6
     3b8:	20 e0       	ldi	r18, 0x00	; 0
     3ba:	30 e0       	ldi	r19, 0x00	; 0
     3bc:	40 e2       	ldi	r20, 0x20	; 32
     3be:	51 e4       	ldi	r21, 0x41	; 65
     3c0:	0e 94 d4 06 	call	0xda8	; 0xda8 <__mulsf3>
     3c4:	0e 94 fe 04 	call	0x9fc	; 0x9fc <__fixunssfsi>
     3c8:	cb 01       	movw	r24, r22
     3ca:	67 2b       	or	r22, r23
     3cc:	29 f0       	breq	.+10     	; 0x3d8 <pwm_ramp1A+0x190>
     3ce:	f5 01       	movw	r30, r10
     3d0:	31 97       	sbiw	r30, 0x01	; 1
     3d2:	f1 f7       	brne	.-4      	; 0x3d0 <pwm_ramp1A+0x188>
     3d4:	01 97       	sbiw	r24, 0x01	; 1
     3d6:	d9 f7       	brne	.-10     	; 0x3ce <pwm_ramp1A+0x186>
     3d8:	cc 15       	cp	r28, r12
     3da:	dd 05       	cpc	r29, r13
     3dc:	88 f6       	brcc	.-94     	; 0x380 <pwm_ramp1A+0x138>
     3de:	9f cf       	rjmp	.-194    	; 0x31e <pwm_ramp1A+0xd6>
     3e0:	c8 01       	movw	r24, r16
     3e2:	b7 01       	movw	r22, r14
     3e4:	0e 94 fe 04 	call	0x9fc	; 0x9fc <__fixunssfsi>
     3e8:	cb 01       	movw	r24, r22
     3ea:	01 97       	sbiw	r24, 0x01	; 1
     3ec:	f1 f7       	brne	.-4      	; 0x3ea <pwm_ramp1A+0x1a2>
     3ee:	cc 16       	cp	r12, r28
     3f0:	dd 06       	cpc	r13, r29
     3f2:	08 f0       	brcs	.+2      	; 0x3f6 <pwm_ramp1A+0x1ae>
     3f4:	64 cf       	rjmp	.-312    	; 0x2be <pwm_ramp1A+0x76>
     3f6:	93 cf       	rjmp	.-218    	; 0x31e <pwm_ramp1A+0xd6>
     3f8:	c8 01       	movw	r24, r16
     3fa:	b7 01       	movw	r22, r14
     3fc:	0e 94 fe 04 	call	0x9fc	; 0x9fc <__fixunssfsi>
     400:	cb 01       	movw	r24, r22
     402:	01 97       	sbiw	r24, 0x01	; 1
     404:	f1 f7       	brne	.-4      	; 0x402 <pwm_ramp1A+0x1ba>
     406:	cc 15       	cp	r28, r12
     408:	dd 05       	cpc	r29, r13
     40a:	08 f0       	brcs	.+2      	; 0x40e <pwm_ramp1A+0x1c6>
     40c:	b9 cf       	rjmp	.-142    	; 0x380 <pwm_ramp1A+0x138>
     40e:	87 cf       	rjmp	.-242    	; 0x31e <pwm_ramp1A+0xd6>
     410:	61 e0       	ldi	r22, 0x01	; 1
     412:	70 e0       	ldi	r23, 0x00	; 0
     414:	e9 cf       	rjmp	.-46     	; 0x3e8 <pwm_ramp1A+0x1a0>
     416:	61 e0       	ldi	r22, 0x01	; 1
     418:	70 e0       	ldi	r23, 0x00	; 0
     41a:	f2 cf       	rjmp	.-28     	; 0x400 <pwm_ramp1A+0x1b8>

0000041c <pwm_rampUp1A>:
     41c:	6f 92       	push	r6
     41e:	7f 92       	push	r7
     420:	8f 92       	push	r8
     422:	9f 92       	push	r9
     424:	af 92       	push	r10
     426:	bf 92       	push	r11
     428:	cf 92       	push	r12
     42a:	df 92       	push	r13
     42c:	ef 92       	push	r14
     42e:	ff 92       	push	r15
     430:	0f 93       	push	r16
     432:	1f 93       	push	r17
     434:	cf 93       	push	r28
     436:	df 93       	push	r29
     438:	5c 01       	movw	r10, r24
     43a:	80 91 80 00 	lds	r24, 0x0080
     43e:	80 68       	ori	r24, 0x80	; 128
     440:	80 93 80 00 	sts	0x0080, r24
     444:	c0 91 12 02 	lds	r28, 0x0212
     448:	d0 91 13 02 	lds	r29, 0x0213
     44c:	ac 16       	cp	r10, r28
     44e:	bd 06       	cpc	r11, r29
     450:	08 f4       	brcc	.+2      	; 0x454 <pwm_rampUp1A+0x38>
     452:	41 c0       	rjmp	.+130    	; 0x4d6 <pwm_rampUp1A+0xba>
     454:	80 e0       	ldi	r24, 0x00	; 0
     456:	90 e0       	ldi	r25, 0x00	; 0
     458:	0e 94 b2 08 	call	0x1164	; 0x1164 <__floatunsisf>
     45c:	3b 01       	movw	r6, r22
     45e:	4c 01       	movw	r8, r24
     460:	20 e0       	ldi	r18, 0x00	; 0
     462:	30 e0       	ldi	r19, 0x00	; 0
     464:	4a e7       	ldi	r20, 0x7A	; 122
     466:	55 e4       	ldi	r21, 0x45	; 69
     468:	0e 94 d4 06 	call	0xda8	; 0xda8 <__mulsf3>
     46c:	7b 01       	movw	r14, r22
     46e:	8c 01       	movw	r16, r24
     470:	30 e9       	ldi	r19, 0x90	; 144
     472:	c3 2e       	mov	r12, r19
     474:	31 e0       	ldi	r19, 0x01	; 1
     476:	d3 2e       	mov	r13, r19
     478:	d0 93 89 00 	sts	0x0089, r29
     47c:	c0 93 88 00 	sts	0x0088, r28
     480:	21 96       	adiw	r28, 0x01	; 1
     482:	c8 01       	movw	r24, r16
     484:	b7 01       	movw	r22, r14
     486:	20 e0       	ldi	r18, 0x00	; 0
     488:	30 e0       	ldi	r19, 0x00	; 0
     48a:	40 e8       	ldi	r20, 0x80	; 128
     48c:	5f e3       	ldi	r21, 0x3F	; 63
     48e:	0e 94 2e 08 	call	0x105c	; 0x105c <__ltsf2>
     492:	88 23       	and	r24, r24
     494:	0c f4       	brge	.+2      	; 0x498 <pwm_rampUp1A+0x7c>
     496:	3e c0       	rjmp	.+124    	; 0x514 <pwm_rampUp1A+0xf8>
     498:	c8 01       	movw	r24, r16
     49a:	b7 01       	movw	r22, r14
     49c:	20 e0       	ldi	r18, 0x00	; 0
     49e:	3f ef       	ldi	r19, 0xFF	; 255
     4a0:	4f e7       	ldi	r20, 0x7F	; 127
     4a2:	57 e4       	ldi	r21, 0x47	; 71
     4a4:	0e 94 ce 07 	call	0xf9c	; 0xf9c <__gtsf2>
     4a8:	18 16       	cp	r1, r24
     4aa:	44 f5       	brge	.+80     	; 0x4fc <pwm_rampUp1A+0xe0>
     4ac:	c4 01       	movw	r24, r8
     4ae:	b3 01       	movw	r22, r6
     4b0:	20 e0       	ldi	r18, 0x00	; 0
     4b2:	30 e0       	ldi	r19, 0x00	; 0
     4b4:	40 e2       	ldi	r20, 0x20	; 32
     4b6:	51 e4       	ldi	r21, 0x41	; 65
     4b8:	0e 94 d4 06 	call	0xda8	; 0xda8 <__mulsf3>
     4bc:	0e 94 fe 04 	call	0x9fc	; 0x9fc <__fixunssfsi>
     4c0:	cb 01       	movw	r24, r22
     4c2:	67 2b       	or	r22, r23
     4c4:	29 f0       	breq	.+10     	; 0x4d0 <pwm_rampUp1A+0xb4>
     4c6:	f6 01       	movw	r30, r12
     4c8:	31 97       	sbiw	r30, 0x01	; 1
     4ca:	f1 f7       	brne	.-4      	; 0x4c8 <pwm_rampUp1A+0xac>
     4cc:	01 97       	sbiw	r24, 0x01	; 1
     4ce:	d9 f7       	brne	.-10     	; 0x4c6 <pwm_rampUp1A+0xaa>
     4d0:	ac 16       	cp	r10, r28
     4d2:	bd 06       	cpc	r11, r29
     4d4:	88 f6       	brcc	.-94     	; 0x478 <pwm_rampUp1A+0x5c>
     4d6:	b0 92 13 02 	sts	0x0213, r11
     4da:	a0 92 12 02 	sts	0x0212, r10
     4de:	df 91       	pop	r29
     4e0:	cf 91       	pop	r28
     4e2:	1f 91       	pop	r17
     4e4:	0f 91       	pop	r16
     4e6:	ff 90       	pop	r15
     4e8:	ef 90       	pop	r14
     4ea:	df 90       	pop	r13
     4ec:	cf 90       	pop	r12
     4ee:	bf 90       	pop	r11
     4f0:	af 90       	pop	r10
     4f2:	9f 90       	pop	r9
     4f4:	8f 90       	pop	r8
     4f6:	7f 90       	pop	r7
     4f8:	6f 90       	pop	r6
     4fa:	08 95       	ret
     4fc:	c8 01       	movw	r24, r16
     4fe:	b7 01       	movw	r22, r14
     500:	0e 94 fe 04 	call	0x9fc	; 0x9fc <__fixunssfsi>
     504:	cb 01       	movw	r24, r22
     506:	01 97       	sbiw	r24, 0x01	; 1
     508:	f1 f7       	brne	.-4      	; 0x506 <pwm_rampUp1A+0xea>
     50a:	ac 16       	cp	r10, r28
     50c:	bd 06       	cpc	r11, r29
     50e:	08 f0       	brcs	.+2      	; 0x512 <pwm_rampUp1A+0xf6>
     510:	b3 cf       	rjmp	.-154    	; 0x478 <pwm_rampUp1A+0x5c>
     512:	e1 cf       	rjmp	.-62     	; 0x4d6 <pwm_rampUp1A+0xba>
     514:	61 e0       	ldi	r22, 0x01	; 1
     516:	70 e0       	ldi	r23, 0x00	; 0
     518:	f5 cf       	rjmp	.-22     	; 0x504 <pwm_rampUp1A+0xe8>

0000051a <pwm_rampDown1A>:
     51a:	6f 92       	push	r6
     51c:	7f 92       	push	r7
     51e:	8f 92       	push	r8
     520:	9f 92       	push	r9
     522:	af 92       	push	r10
     524:	bf 92       	push	r11
     526:	cf 92       	push	r12
     528:	df 92       	push	r13
     52a:	ef 92       	push	r14
     52c:	ff 92       	push	r15
     52e:	0f 93       	push	r16
     530:	1f 93       	push	r17
     532:	cf 93       	push	r28
     534:	df 93       	push	r29
     536:	6c 01       	movw	r12, r24
     538:	00 97       	sbiw	r24, 0x00	; 0
     53a:	19 f4       	brne	.+6      	; 0x542 <pwm_rampDown1A+0x28>
     53c:	51 e0       	ldi	r21, 0x01	; 1
     53e:	c5 2e       	mov	r12, r21
     540:	d1 2c       	mov	r13, r1
     542:	80 91 80 00 	lds	r24, 0x0080
     546:	80 68       	ori	r24, 0x80	; 128
     548:	80 93 80 00 	sts	0x0080, r24
     54c:	c0 91 12 02 	lds	r28, 0x0212
     550:	d0 91 13 02 	lds	r29, 0x0213
     554:	cc 15       	cp	r28, r12
     556:	dd 05       	cpc	r29, r13
     558:	08 f4       	brcc	.+2      	; 0x55c <pwm_rampDown1A+0x42>
     55a:	41 c0       	rjmp	.+130    	; 0x5de <pwm_rampDown1A+0xc4>
     55c:	80 e0       	ldi	r24, 0x00	; 0
     55e:	90 e0       	ldi	r25, 0x00	; 0
     560:	0e 94 b2 08 	call	0x1164	; 0x1164 <__floatunsisf>
     564:	3b 01       	movw	r6, r22
     566:	4c 01       	movw	r8, r24
     568:	20 e0       	ldi	r18, 0x00	; 0
     56a:	30 e0       	ldi	r19, 0x00	; 0
     56c:	4a e7       	ldi	r20, 0x7A	; 122
     56e:	55 e4       	ldi	r21, 0x45	; 69
     570:	0e 94 d4 06 	call	0xda8	; 0xda8 <__mulsf3>
     574:	7b 01       	movw	r14, r22
     576:	8c 01       	movw	r16, r24
     578:	40 e9       	ldi	r20, 0x90	; 144
     57a:	a4 2e       	mov	r10, r20
     57c:	41 e0       	ldi	r20, 0x01	; 1
     57e:	b4 2e       	mov	r11, r20
     580:	d0 93 89 00 	sts	0x0089, r29
     584:	c0 93 88 00 	sts	0x0088, r28
     588:	21 97       	sbiw	r28, 0x01	; 1
     58a:	c8 01       	movw	r24, r16
     58c:	b7 01       	movw	r22, r14
     58e:	20 e0       	ldi	r18, 0x00	; 0
     590:	30 e0       	ldi	r19, 0x00	; 0
     592:	40 e8       	ldi	r20, 0x80	; 128
     594:	5f e3       	ldi	r21, 0x3F	; 63
     596:	0e 94 2e 08 	call	0x105c	; 0x105c <__ltsf2>
     59a:	88 23       	and	r24, r24
     59c:	0c f4       	brge	.+2      	; 0x5a0 <pwm_rampDown1A+0x86>
     59e:	3e c0       	rjmp	.+124    	; 0x61c <pwm_rampDown1A+0x102>
     5a0:	c8 01       	movw	r24, r16
     5a2:	b7 01       	movw	r22, r14
     5a4:	20 e0       	ldi	r18, 0x00	; 0
     5a6:	3f ef       	ldi	r19, 0xFF	; 255
     5a8:	4f e7       	ldi	r20, 0x7F	; 127
     5aa:	57 e4       	ldi	r21, 0x47	; 71
     5ac:	0e 94 ce 07 	call	0xf9c	; 0xf9c <__gtsf2>
     5b0:	18 16       	cp	r1, r24
     5b2:	44 f5       	brge	.+80     	; 0x604 <pwm_rampDown1A+0xea>
     5b4:	c4 01       	movw	r24, r8
     5b6:	b3 01       	movw	r22, r6
     5b8:	20 e0       	ldi	r18, 0x00	; 0
     5ba:	30 e0       	ldi	r19, 0x00	; 0
     5bc:	40 e2       	ldi	r20, 0x20	; 32
     5be:	51 e4       	ldi	r21, 0x41	; 65
     5c0:	0e 94 d4 06 	call	0xda8	; 0xda8 <__mulsf3>
     5c4:	0e 94 fe 04 	call	0x9fc	; 0x9fc <__fixunssfsi>
     5c8:	cb 01       	movw	r24, r22
     5ca:	67 2b       	or	r22, r23
     5cc:	29 f0       	breq	.+10     	; 0x5d8 <pwm_rampDown1A+0xbe>
     5ce:	f5 01       	movw	r30, r10
     5d0:	31 97       	sbiw	r30, 0x01	; 1
     5d2:	f1 f7       	brne	.-4      	; 0x5d0 <pwm_rampDown1A+0xb6>
     5d4:	01 97       	sbiw	r24, 0x01	; 1
     5d6:	d9 f7       	brne	.-10     	; 0x5ce <pwm_rampDown1A+0xb4>
     5d8:	cc 15       	cp	r28, r12
     5da:	dd 05       	cpc	r29, r13
     5dc:	88 f6       	brcc	.-94     	; 0x580 <pwm_rampDown1A+0x66>
     5de:	d0 92 13 02 	sts	0x0213, r13
     5e2:	c0 92 12 02 	sts	0x0212, r12
     5e6:	df 91       	pop	r29
     5e8:	cf 91       	pop	r28
     5ea:	1f 91       	pop	r17
     5ec:	0f 91       	pop	r16
     5ee:	ff 90       	pop	r15
     5f0:	ef 90       	pop	r14
     5f2:	df 90       	pop	r13
     5f4:	cf 90       	pop	r12
     5f6:	bf 90       	pop	r11
     5f8:	af 90       	pop	r10
     5fa:	9f 90       	pop	r9
     5fc:	8f 90       	pop	r8
     5fe:	7f 90       	pop	r7
     600:	6f 90       	pop	r6
     602:	08 95       	ret
     604:	c8 01       	movw	r24, r16
     606:	b7 01       	movw	r22, r14
     608:	0e 94 fe 04 	call	0x9fc	; 0x9fc <__fixunssfsi>
     60c:	cb 01       	movw	r24, r22
     60e:	01 97       	sbiw	r24, 0x01	; 1
     610:	f1 f7       	brne	.-4      	; 0x60e <pwm_rampDown1A+0xf4>
     612:	cc 15       	cp	r28, r12
     614:	dd 05       	cpc	r29, r13
     616:	08 f0       	brcs	.+2      	; 0x61a <pwm_rampDown1A+0x100>
     618:	b3 cf       	rjmp	.-154    	; 0x580 <pwm_rampDown1A+0x66>
     61a:	e1 cf       	rjmp	.-62     	; 0x5de <pwm_rampDown1A+0xc4>
     61c:	61 e0       	ldi	r22, 0x01	; 1
     61e:	70 e0       	ldi	r23, 0x00	; 0
     620:	f5 cf       	rjmp	.-22     	; 0x60c <pwm_rampDown1A+0xf2>

00000622 <pwm_ramp1B>:
     622:	6f 92       	push	r6
     624:	7f 92       	push	r7
     626:	8f 92       	push	r8
     628:	9f 92       	push	r9
     62a:	af 92       	push	r10
     62c:	bf 92       	push	r11
     62e:	cf 92       	push	r12
     630:	df 92       	push	r13
     632:	ef 92       	push	r14
     634:	ff 92       	push	r15
     636:	0f 93       	push	r16
     638:	1f 93       	push	r17
     63a:	cf 93       	push	r28
     63c:	df 93       	push	r29
     63e:	6c 01       	movw	r12, r24
     640:	00 97       	sbiw	r24, 0x00	; 0
     642:	19 f4       	brne	.+6      	; 0x64a <pwm_ramp1B+0x28>
     644:	e1 e0       	ldi	r30, 0x01	; 1
     646:	ce 2e       	mov	r12, r30
     648:	d1 2c       	mov	r13, r1
     64a:	80 91 0c 02 	lds	r24, 0x020C
     64e:	90 91 0d 02 	lds	r25, 0x020D
     652:	8c 15       	cp	r24, r12
     654:	9d 05       	cpc	r25, r13
     656:	08 f0       	brcs	.+2      	; 0x65a <pwm_ramp1B+0x38>
     658:	62 c0       	rjmp	.+196    	; 0x71e <pwm_ramp1B+0xfc>
     65a:	80 91 80 00 	lds	r24, 0x0080
     65e:	80 62       	ori	r24, 0x20	; 32
     660:	80 93 80 00 	sts	0x0080, r24
     664:	c0 91 0c 02 	lds	r28, 0x020C
     668:	d0 91 0d 02 	lds	r29, 0x020D
     66c:	cc 16       	cp	r12, r28
     66e:	dd 06       	cpc	r13, r29
     670:	08 f4       	brcc	.+2      	; 0x674 <pwm_ramp1B+0x52>
     672:	42 c0       	rjmp	.+132    	; 0x6f8 <pwm_ramp1B+0xd6>
     674:	80 e0       	ldi	r24, 0x00	; 0
     676:	90 e0       	ldi	r25, 0x00	; 0
     678:	0e 94 b2 08 	call	0x1164	; 0x1164 <__floatunsisf>
     67c:	3b 01       	movw	r6, r22
     67e:	4c 01       	movw	r8, r24
     680:	20 e0       	ldi	r18, 0x00	; 0
     682:	30 e0       	ldi	r19, 0x00	; 0
     684:	4a e7       	ldi	r20, 0x7A	; 122
     686:	55 e4       	ldi	r21, 0x45	; 69
     688:	0e 94 d4 06 	call	0xda8	; 0xda8 <__mulsf3>
     68c:	7b 01       	movw	r14, r22
     68e:	8c 01       	movw	r16, r24
     690:	70 e9       	ldi	r23, 0x90	; 144
     692:	a7 2e       	mov	r10, r23
     694:	71 e0       	ldi	r23, 0x01	; 1
     696:	b7 2e       	mov	r11, r23
     698:	d0 93 8b 00 	sts	0x008B, r29
     69c:	c0 93 8a 00 	sts	0x008A, r28
     6a0:	21 96       	adiw	r28, 0x01	; 1
     6a2:	c8 01       	movw	r24, r16
     6a4:	b7 01       	movw	r22, r14
     6a6:	20 e0       	ldi	r18, 0x00	; 0
     6a8:	30 e0       	ldi	r19, 0x00	; 0
     6aa:	40 e8       	ldi	r20, 0x80	; 128
     6ac:	5f e3       	ldi	r21, 0x3F	; 63
     6ae:	0e 94 2e 08 	call	0x105c	; 0x105c <__ltsf2>
     6b2:	88 23       	and	r24, r24
     6b4:	0c f4       	brge	.+2      	; 0x6b8 <pwm_ramp1B+0x96>
     6b6:	99 c0       	rjmp	.+306    	; 0x7ea <pwm_ramp1B+0x1c8>
     6b8:	c8 01       	movw	r24, r16
     6ba:	b7 01       	movw	r22, r14
     6bc:	20 e0       	ldi	r18, 0x00	; 0
     6be:	3f ef       	ldi	r19, 0xFF	; 255
     6c0:	4f e7       	ldi	r20, 0x7F	; 127
     6c2:	57 e4       	ldi	r21, 0x47	; 71
     6c4:	0e 94 ce 07 	call	0xf9c	; 0xf9c <__gtsf2>
     6c8:	18 16       	cp	r1, r24
     6ca:	0c f0       	brlt	.+2      	; 0x6ce <pwm_ramp1B+0xac>
     6cc:	76 c0       	rjmp	.+236    	; 0x7ba <pwm_ramp1B+0x198>
     6ce:	c4 01       	movw	r24, r8
     6d0:	b3 01       	movw	r22, r6
     6d2:	20 e0       	ldi	r18, 0x00	; 0
     6d4:	30 e0       	ldi	r19, 0x00	; 0
     6d6:	40 e2       	ldi	r20, 0x20	; 32
     6d8:	51 e4       	ldi	r21, 0x41	; 65
     6da:	0e 94 d4 06 	call	0xda8	; 0xda8 <__mulsf3>
     6de:	0e 94 fe 04 	call	0x9fc	; 0x9fc <__fixunssfsi>
     6e2:	cb 01       	movw	r24, r22
     6e4:	67 2b       	or	r22, r23
     6e6:	29 f0       	breq	.+10     	; 0x6f2 <pwm_ramp1B+0xd0>
     6e8:	f5 01       	movw	r30, r10
     6ea:	31 97       	sbiw	r30, 0x01	; 1
     6ec:	f1 f7       	brne	.-4      	; 0x6ea <pwm_ramp1B+0xc8>
     6ee:	01 97       	sbiw	r24, 0x01	; 1
     6f0:	d9 f7       	brne	.-10     	; 0x6e8 <pwm_ramp1B+0xc6>
     6f2:	cc 16       	cp	r12, r28
     6f4:	dd 06       	cpc	r13, r29
     6f6:	80 f6       	brcc	.-96     	; 0x698 <pwm_ramp1B+0x76>
     6f8:	d0 92 0d 02 	sts	0x020D, r13
     6fc:	c0 92 0c 02 	sts	0x020C, r12
     700:	df 91       	pop	r29
     702:	cf 91       	pop	r28
     704:	1f 91       	pop	r17
     706:	0f 91       	pop	r16
     708:	ff 90       	pop	r15
     70a:	ef 90       	pop	r14
     70c:	df 90       	pop	r13
     70e:	cf 90       	pop	r12
     710:	bf 90       	pop	r11
     712:	af 90       	pop	r10
     714:	9f 90       	pop	r9
     716:	8f 90       	pop	r8
     718:	7f 90       	pop	r7
     71a:	6f 90       	pop	r6
     71c:	08 95       	ret
     71e:	80 91 80 00 	lds	r24, 0x0080
     722:	80 62       	ori	r24, 0x20	; 32
     724:	80 93 80 00 	sts	0x0080, r24
     728:	c0 91 0c 02 	lds	r28, 0x020C
     72c:	d0 91 0d 02 	lds	r29, 0x020D
     730:	cc 15       	cp	r28, r12
     732:	dd 05       	cpc	r29, r13
     734:	08 f3       	brcs	.-62     	; 0x6f8 <pwm_ramp1B+0xd6>
     736:	80 e0       	ldi	r24, 0x00	; 0
     738:	90 e0       	ldi	r25, 0x00	; 0
     73a:	0e 94 b2 08 	call	0x1164	; 0x1164 <__floatunsisf>
     73e:	3b 01       	movw	r6, r22
     740:	4c 01       	movw	r8, r24
     742:	20 e0       	ldi	r18, 0x00	; 0
     744:	30 e0       	ldi	r19, 0x00	; 0
     746:	4a e7       	ldi	r20, 0x7A	; 122
     748:	55 e4       	ldi	r21, 0x45	; 69
     74a:	0e 94 d4 06 	call	0xda8	; 0xda8 <__mulsf3>
     74e:	7b 01       	movw	r14, r22
     750:	8c 01       	movw	r16, r24
     752:	60 e9       	ldi	r22, 0x90	; 144
     754:	a6 2e       	mov	r10, r22
     756:	61 e0       	ldi	r22, 0x01	; 1
     758:	b6 2e       	mov	r11, r22
     75a:	d0 93 8b 00 	sts	0x008B, r29
     75e:	c0 93 8a 00 	sts	0x008A, r28
     762:	21 97       	sbiw	r28, 0x01	; 1
     764:	c8 01       	movw	r24, r16
     766:	b7 01       	movw	r22, r14
     768:	20 e0       	ldi	r18, 0x00	; 0
     76a:	30 e0       	ldi	r19, 0x00	; 0
     76c:	40 e8       	ldi	r20, 0x80	; 128
     76e:	5f e3       	ldi	r21, 0x3F	; 63
     770:	0e 94 2e 08 	call	0x105c	; 0x105c <__ltsf2>
     774:	88 23       	and	r24, r24
     776:	0c f4       	brge	.+2      	; 0x77a <pwm_ramp1B+0x158>
     778:	3b c0       	rjmp	.+118    	; 0x7f0 <pwm_ramp1B+0x1ce>
     77a:	c8 01       	movw	r24, r16
     77c:	b7 01       	movw	r22, r14
     77e:	20 e0       	ldi	r18, 0x00	; 0
     780:	3f ef       	ldi	r19, 0xFF	; 255
     782:	4f e7       	ldi	r20, 0x7F	; 127
     784:	57 e4       	ldi	r21, 0x47	; 71
     786:	0e 94 ce 07 	call	0xf9c	; 0xf9c <__gtsf2>
     78a:	18 16       	cp	r1, r24
     78c:	14 f5       	brge	.+68     	; 0x7d2 <pwm_ramp1B+0x1b0>
     78e:	c4 01       	movw	r24, r8
     790:	b3 01       	movw	r22, r6
     792:	20 e0       	ldi	r18, 0x00	; 0
     794:	30 e0       	ldi	r19, 0x00	; 0
     796:	40 e2       	ldi	r20, 0x20	; 32
     798:	51 e4       	ldi	r21, 0x41	; 65
     79a:	0e 94 d4 06 	call	0xda8	; 0xda8 <__mulsf3>
     79e:	0e 94 fe 04 	call	0x9fc	; 0x9fc <__fixunssfsi>
     7a2:	cb 01       	movw	r24, r22
     7a4:	67 2b       	or	r22, r23
     7a6:	29 f0       	breq	.+10     	; 0x7b2 <pwm_ramp1B+0x190>
     7a8:	f5 01       	movw	r30, r10
     7aa:	31 97       	sbiw	r30, 0x01	; 1
     7ac:	f1 f7       	brne	.-4      	; 0x7aa <pwm_ramp1B+0x188>
     7ae:	01 97       	sbiw	r24, 0x01	; 1
     7b0:	d9 f7       	brne	.-10     	; 0x7a8 <pwm_ramp1B+0x186>
     7b2:	cc 15       	cp	r28, r12
     7b4:	dd 05       	cpc	r29, r13
     7b6:	88 f6       	brcc	.-94     	; 0x75a <pwm_ramp1B+0x138>
     7b8:	9f cf       	rjmp	.-194    	; 0x6f8 <pwm_ramp1B+0xd6>
     7ba:	c8 01       	movw	r24, r16
     7bc:	b7 01       	movw	r22, r14
     7be:	0e 94 fe 04 	call	0x9fc	; 0x9fc <__fixunssfsi>
     7c2:	cb 01       	movw	r24, r22
     7c4:	01 97       	sbiw	r24, 0x01	; 1
     7c6:	f1 f7       	brne	.-4      	; 0x7c4 <pwm_ramp1B+0x1a2>
     7c8:	cc 16       	cp	r12, r28
     7ca:	dd 06       	cpc	r13, r29
     7cc:	08 f0       	brcs	.+2      	; 0x7d0 <pwm_ramp1B+0x1ae>
     7ce:	64 cf       	rjmp	.-312    	; 0x698 <pwm_ramp1B+0x76>
     7d0:	93 cf       	rjmp	.-218    	; 0x6f8 <pwm_ramp1B+0xd6>
     7d2:	c8 01       	movw	r24, r16
     7d4:	b7 01       	movw	r22, r14
     7d6:	0e 94 fe 04 	call	0x9fc	; 0x9fc <__fixunssfsi>
     7da:	cb 01       	movw	r24, r22
     7dc:	01 97       	sbiw	r24, 0x01	; 1
     7de:	f1 f7       	brne	.-4      	; 0x7dc <pwm_ramp1B+0x1ba>
     7e0:	cc 15       	cp	r28, r12
     7e2:	dd 05       	cpc	r29, r13
     7e4:	08 f0       	brcs	.+2      	; 0x7e8 <pwm_ramp1B+0x1c6>
     7e6:	b9 cf       	rjmp	.-142    	; 0x75a <pwm_ramp1B+0x138>
     7e8:	87 cf       	rjmp	.-242    	; 0x6f8 <pwm_ramp1B+0xd6>
     7ea:	61 e0       	ldi	r22, 0x01	; 1
     7ec:	70 e0       	ldi	r23, 0x00	; 0
     7ee:	e9 cf       	rjmp	.-46     	; 0x7c2 <pwm_ramp1B+0x1a0>
     7f0:	61 e0       	ldi	r22, 0x01	; 1
     7f2:	70 e0       	ldi	r23, 0x00	; 0
     7f4:	f2 cf       	rjmp	.-28     	; 0x7da <pwm_ramp1B+0x1b8>

000007f6 <pwm_rampUp1B>:
     7f6:	6f 92       	push	r6
     7f8:	7f 92       	push	r7
     7fa:	8f 92       	push	r8
     7fc:	9f 92       	push	r9
     7fe:	af 92       	push	r10
     800:	bf 92       	push	r11
     802:	cf 92       	push	r12
     804:	df 92       	push	r13
     806:	ef 92       	push	r14
     808:	ff 92       	push	r15
     80a:	0f 93       	push	r16
     80c:	1f 93       	push	r17
     80e:	cf 93       	push	r28
     810:	df 93       	push	r29
     812:	5c 01       	movw	r10, r24
     814:	80 91 80 00 	lds	r24, 0x0080
     818:	80 62       	ori	r24, 0x20	; 32
     81a:	80 93 80 00 	sts	0x0080, r24
     81e:	c0 91 0c 02 	lds	r28, 0x020C
     822:	d0 91 0d 02 	lds	r29, 0x020D
     826:	ac 16       	cp	r10, r28
     828:	bd 06       	cpc	r11, r29
     82a:	08 f4       	brcc	.+2      	; 0x82e <pwm_rampUp1B+0x38>
     82c:	41 c0       	rjmp	.+130    	; 0x8b0 <pwm_rampUp1B+0xba>
     82e:	80 e0       	ldi	r24, 0x00	; 0
     830:	90 e0       	ldi	r25, 0x00	; 0
     832:	0e 94 b2 08 	call	0x1164	; 0x1164 <__floatunsisf>
     836:	3b 01       	movw	r6, r22
     838:	4c 01       	movw	r8, r24
     83a:	20 e0       	ldi	r18, 0x00	; 0
     83c:	30 e0       	ldi	r19, 0x00	; 0
     83e:	4a e7       	ldi	r20, 0x7A	; 122
     840:	55 e4       	ldi	r21, 0x45	; 69
     842:	0e 94 d4 06 	call	0xda8	; 0xda8 <__mulsf3>
     846:	7b 01       	movw	r14, r22
     848:	8c 01       	movw	r16, r24
     84a:	f0 e9       	ldi	r31, 0x90	; 144
     84c:	cf 2e       	mov	r12, r31
     84e:	f1 e0       	ldi	r31, 0x01	; 1
     850:	df 2e       	mov	r13, r31
     852:	d0 93 8b 00 	sts	0x008B, r29
     856:	c0 93 8a 00 	sts	0x008A, r28
     85a:	21 96       	adiw	r28, 0x01	; 1
     85c:	c8 01       	movw	r24, r16
     85e:	b7 01       	movw	r22, r14
     860:	20 e0       	ldi	r18, 0x00	; 0
     862:	30 e0       	ldi	r19, 0x00	; 0
     864:	40 e8       	ldi	r20, 0x80	; 128
     866:	5f e3       	ldi	r21, 0x3F	; 63
     868:	0e 94 2e 08 	call	0x105c	; 0x105c <__ltsf2>
     86c:	88 23       	and	r24, r24
     86e:	0c f4       	brge	.+2      	; 0x872 <pwm_rampUp1B+0x7c>
     870:	3e c0       	rjmp	.+124    	; 0x8ee <pwm_rampUp1B+0xf8>
     872:	c8 01       	movw	r24, r16
     874:	b7 01       	movw	r22, r14
     876:	20 e0       	ldi	r18, 0x00	; 0
     878:	3f ef       	ldi	r19, 0xFF	; 255
     87a:	4f e7       	ldi	r20, 0x7F	; 127
     87c:	57 e4       	ldi	r21, 0x47	; 71
     87e:	0e 94 ce 07 	call	0xf9c	; 0xf9c <__gtsf2>
     882:	18 16       	cp	r1, r24
     884:	44 f5       	brge	.+80     	; 0x8d6 <pwm_rampUp1B+0xe0>
     886:	c4 01       	movw	r24, r8
     888:	b3 01       	movw	r22, r6
     88a:	20 e0       	ldi	r18, 0x00	; 0
     88c:	30 e0       	ldi	r19, 0x00	; 0
     88e:	40 e2       	ldi	r20, 0x20	; 32
     890:	51 e4       	ldi	r21, 0x41	; 65
     892:	0e 94 d4 06 	call	0xda8	; 0xda8 <__mulsf3>
     896:	0e 94 fe 04 	call	0x9fc	; 0x9fc <__fixunssfsi>
     89a:	cb 01       	movw	r24, r22
     89c:	67 2b       	or	r22, r23
     89e:	29 f0       	breq	.+10     	; 0x8aa <pwm_rampUp1B+0xb4>
     8a0:	f6 01       	movw	r30, r12
     8a2:	31 97       	sbiw	r30, 0x01	; 1
     8a4:	f1 f7       	brne	.-4      	; 0x8a2 <pwm_rampUp1B+0xac>
     8a6:	01 97       	sbiw	r24, 0x01	; 1
     8a8:	d9 f7       	brne	.-10     	; 0x8a0 <pwm_rampUp1B+0xaa>
     8aa:	ac 16       	cp	r10, r28
     8ac:	bd 06       	cpc	r11, r29
     8ae:	88 f6       	brcc	.-94     	; 0x852 <pwm_rampUp1B+0x5c>
     8b0:	b0 92 0d 02 	sts	0x020D, r11
     8b4:	a0 92 0c 02 	sts	0x020C, r10
     8b8:	df 91       	pop	r29
     8ba:	cf 91       	pop	r28
     8bc:	1f 91       	pop	r17
     8be:	0f 91       	pop	r16
     8c0:	ff 90       	pop	r15
     8c2:	ef 90       	pop	r14
     8c4:	df 90       	pop	r13
     8c6:	cf 90       	pop	r12
     8c8:	bf 90       	pop	r11
     8ca:	af 90       	pop	r10
     8cc:	9f 90       	pop	r9
     8ce:	8f 90       	pop	r8
     8d0:	7f 90       	pop	r7
     8d2:	6f 90       	pop	r6
     8d4:	08 95       	ret
     8d6:	c8 01       	movw	r24, r16
     8d8:	b7 01       	movw	r22, r14
     8da:	0e 94 fe 04 	call	0x9fc	; 0x9fc <__fixunssfsi>
     8de:	cb 01       	movw	r24, r22
     8e0:	01 97       	sbiw	r24, 0x01	; 1
     8e2:	f1 f7       	brne	.-4      	; 0x8e0 <pwm_rampUp1B+0xea>
     8e4:	ac 16       	cp	r10, r28
     8e6:	bd 06       	cpc	r11, r29
     8e8:	08 f0       	brcs	.+2      	; 0x8ec <pwm_rampUp1B+0xf6>
     8ea:	b3 cf       	rjmp	.-154    	; 0x852 <pwm_rampUp1B+0x5c>
     8ec:	e1 cf       	rjmp	.-62     	; 0x8b0 <pwm_rampUp1B+0xba>
     8ee:	61 e0       	ldi	r22, 0x01	; 1
     8f0:	70 e0       	ldi	r23, 0x00	; 0
     8f2:	f5 cf       	rjmp	.-22     	; 0x8de <pwm_rampUp1B+0xe8>

000008f4 <pwm_rampDown1B>:
     8f4:	6f 92       	push	r6
     8f6:	7f 92       	push	r7
     8f8:	8f 92       	push	r8
     8fa:	9f 92       	push	r9
     8fc:	af 92       	push	r10
     8fe:	bf 92       	push	r11
     900:	cf 92       	push	r12
     902:	df 92       	push	r13
     904:	ef 92       	push	r14
     906:	ff 92       	push	r15
     908:	0f 93       	push	r16
     90a:	1f 93       	push	r17
     90c:	cf 93       	push	r28
     90e:	df 93       	push	r29
     910:	6c 01       	movw	r12, r24
     912:	00 97       	sbiw	r24, 0x00	; 0
     914:	19 f4       	brne	.+6      	; 0x91c <__stack+0x1d>
     916:	b1 e0       	ldi	r27, 0x01	; 1
     918:	cb 2e       	mov	r12, r27
     91a:	d1 2c       	mov	r13, r1
     91c:	80 91 80 00 	lds	r24, 0x0080
     920:	80 62       	ori	r24, 0x20	; 32
     922:	80 93 80 00 	sts	0x0080, r24
     926:	c0 91 0c 02 	lds	r28, 0x020C
     92a:	d0 91 0d 02 	lds	r29, 0x020D
     92e:	cc 15       	cp	r28, r12
     930:	dd 05       	cpc	r29, r13
     932:	08 f4       	brcc	.+2      	; 0x936 <__stack+0x37>
     934:	41 c0       	rjmp	.+130    	; 0x9b8 <__stack+0xb9>
     936:	80 e0       	ldi	r24, 0x00	; 0
     938:	90 e0       	ldi	r25, 0x00	; 0
     93a:	0e 94 b2 08 	call	0x1164	; 0x1164 <__floatunsisf>
     93e:	3b 01       	movw	r6, r22
     940:	4c 01       	movw	r8, r24
     942:	20 e0       	ldi	r18, 0x00	; 0
     944:	30 e0       	ldi	r19, 0x00	; 0
     946:	4a e7       	ldi	r20, 0x7A	; 122
     948:	55 e4       	ldi	r21, 0x45	; 69
     94a:	0e 94 d4 06 	call	0xda8	; 0xda8 <__mulsf3>
     94e:	7b 01       	movw	r14, r22
     950:	8c 01       	movw	r16, r24
     952:	a0 e9       	ldi	r26, 0x90	; 144
     954:	aa 2e       	mov	r10, r26
     956:	a1 e0       	ldi	r26, 0x01	; 1
     958:	ba 2e       	mov	r11, r26
     95a:	d0 93 8b 00 	sts	0x008B, r29
     95e:	c0 93 8a 00 	sts	0x008A, r28
     962:	21 97       	sbiw	r28, 0x01	; 1
     964:	c8 01       	movw	r24, r16
     966:	b7 01       	movw	r22, r14
     968:	20 e0       	ldi	r18, 0x00	; 0
     96a:	30 e0       	ldi	r19, 0x00	; 0
     96c:	40 e8       	ldi	r20, 0x80	; 128
     96e:	5f e3       	ldi	r21, 0x3F	; 63
     970:	0e 94 2e 08 	call	0x105c	; 0x105c <__ltsf2>
     974:	88 23       	and	r24, r24
     976:	0c f4       	brge	.+2      	; 0x97a <__stack+0x7b>
     978:	3e c0       	rjmp	.+124    	; 0x9f6 <__stack+0xf7>
     97a:	c8 01       	movw	r24, r16
     97c:	b7 01       	movw	r22, r14
     97e:	20 e0       	ldi	r18, 0x00	; 0
     980:	3f ef       	ldi	r19, 0xFF	; 255
     982:	4f e7       	ldi	r20, 0x7F	; 127
     984:	57 e4       	ldi	r21, 0x47	; 71
     986:	0e 94 ce 07 	call	0xf9c	; 0xf9c <__gtsf2>
     98a:	18 16       	cp	r1, r24
     98c:	44 f5       	brge	.+80     	; 0x9de <__stack+0xdf>
     98e:	c4 01       	movw	r24, r8
     990:	b3 01       	movw	r22, r6
     992:	20 e0       	ldi	r18, 0x00	; 0
     994:	30 e0       	ldi	r19, 0x00	; 0
     996:	40 e2       	ldi	r20, 0x20	; 32
     998:	51 e4       	ldi	r21, 0x41	; 65
     99a:	0e 94 d4 06 	call	0xda8	; 0xda8 <__mulsf3>
     99e:	0e 94 fe 04 	call	0x9fc	; 0x9fc <__fixunssfsi>
     9a2:	cb 01       	movw	r24, r22
     9a4:	67 2b       	or	r22, r23
     9a6:	29 f0       	breq	.+10     	; 0x9b2 <__stack+0xb3>
     9a8:	f5 01       	movw	r30, r10
     9aa:	31 97       	sbiw	r30, 0x01	; 1
     9ac:	f1 f7       	brne	.-4      	; 0x9aa <__stack+0xab>
     9ae:	01 97       	sbiw	r24, 0x01	; 1
     9b0:	d9 f7       	brne	.-10     	; 0x9a8 <__stack+0xa9>
     9b2:	cc 15       	cp	r28, r12
     9b4:	dd 05       	cpc	r29, r13
     9b6:	88 f6       	brcc	.-94     	; 0x95a <__stack+0x5b>
     9b8:	d0 92 0d 02 	sts	0x020D, r13
     9bc:	c0 92 0c 02 	sts	0x020C, r12
     9c0:	df 91       	pop	r29
     9c2:	cf 91       	pop	r28
     9c4:	1f 91       	pop	r17
     9c6:	0f 91       	pop	r16
     9c8:	ff 90       	pop	r15
     9ca:	ef 90       	pop	r14
     9cc:	df 90       	pop	r13
     9ce:	cf 90       	pop	r12
     9d0:	bf 90       	pop	r11
     9d2:	af 90       	pop	r10
     9d4:	9f 90       	pop	r9
     9d6:	8f 90       	pop	r8
     9d8:	7f 90       	pop	r7
     9da:	6f 90       	pop	r6
     9dc:	08 95       	ret
     9de:	c8 01       	movw	r24, r16
     9e0:	b7 01       	movw	r22, r14
     9e2:	0e 94 fe 04 	call	0x9fc	; 0x9fc <__fixunssfsi>
     9e6:	cb 01       	movw	r24, r22
     9e8:	01 97       	sbiw	r24, 0x01	; 1
     9ea:	f1 f7       	brne	.-4      	; 0x9e8 <__stack+0xe9>
     9ec:	cc 15       	cp	r28, r12
     9ee:	dd 05       	cpc	r29, r13
     9f0:	08 f0       	brcs	.+2      	; 0x9f4 <__stack+0xf5>
     9f2:	b3 cf       	rjmp	.-154    	; 0x95a <__stack+0x5b>
     9f4:	e1 cf       	rjmp	.-62     	; 0x9b8 <__stack+0xb9>
     9f6:	61 e0       	ldi	r22, 0x01	; 1
     9f8:	70 e0       	ldi	r23, 0x00	; 0
     9fa:	f5 cf       	rjmp	.-22     	; 0x9e6 <__stack+0xe7>

000009fc <__fixunssfsi>:
     9fc:	ef 92       	push	r14
     9fe:	ff 92       	push	r15
     a00:	0f 93       	push	r16
     a02:	1f 93       	push	r17
     a04:	7b 01       	movw	r14, r22
     a06:	8c 01       	movw	r16, r24
     a08:	20 e0       	ldi	r18, 0x00	; 0
     a0a:	30 e0       	ldi	r19, 0x00	; 0
     a0c:	40 e0       	ldi	r20, 0x00	; 0
     a0e:	5f e4       	ldi	r21, 0x4F	; 79
     a10:	0e 94 fe 07 	call	0xffc	; 0xffc <__gesf2>
     a14:	88 23       	and	r24, r24
     a16:	8c f0       	brlt	.+34     	; 0xa3a <__fixunssfsi+0x3e>
     a18:	c8 01       	movw	r24, r16
     a1a:	b7 01       	movw	r22, r14
     a1c:	20 e0       	ldi	r18, 0x00	; 0
     a1e:	30 e0       	ldi	r19, 0x00	; 0
     a20:	40 e0       	ldi	r20, 0x00	; 0
     a22:	5f e4       	ldi	r21, 0x4F	; 79
     a24:	0e 94 76 06 	call	0xcec	; 0xcec <__subsf3>
     a28:	0e 94 5e 08 	call	0x10bc	; 0x10bc <__fixsfsi>
     a2c:	9b 01       	movw	r18, r22
     a2e:	ac 01       	movw	r20, r24
     a30:	20 50       	subi	r18, 0x00	; 0
     a32:	30 40       	sbci	r19, 0x00	; 0
     a34:	40 40       	sbci	r20, 0x00	; 0
     a36:	50 48       	sbci	r21, 0x80	; 128
     a38:	06 c0       	rjmp	.+12     	; 0xa46 <__fixunssfsi+0x4a>
     a3a:	c8 01       	movw	r24, r16
     a3c:	b7 01       	movw	r22, r14
     a3e:	0e 94 5e 08 	call	0x10bc	; 0x10bc <__fixsfsi>
     a42:	9b 01       	movw	r18, r22
     a44:	ac 01       	movw	r20, r24
     a46:	b9 01       	movw	r22, r18
     a48:	ca 01       	movw	r24, r20
     a4a:	1f 91       	pop	r17
     a4c:	0f 91       	pop	r16
     a4e:	ff 90       	pop	r15
     a50:	ef 90       	pop	r14
     a52:	08 95       	ret

00000a54 <_fpadd_parts>:
     a54:	a0 e0       	ldi	r26, 0x00	; 0
     a56:	b0 e0       	ldi	r27, 0x00	; 0
     a58:	e0 e3       	ldi	r30, 0x30	; 48
     a5a:	f5 e0       	ldi	r31, 0x05	; 5
     a5c:	0c 94 20 0b 	jmp	0x1640	; 0x1640 <__prologue_saves__>
     a60:	dc 01       	movw	r26, r24
     a62:	2b 01       	movw	r4, r22
     a64:	fa 01       	movw	r30, r20
     a66:	9c 91       	ld	r25, X
     a68:	92 30       	cpi	r25, 0x02	; 2
     a6a:	08 f4       	brcc	.+2      	; 0xa6e <_fpadd_parts+0x1a>
     a6c:	39 c1       	rjmp	.+626    	; 0xce0 <_fpadd_parts+0x28c>
     a6e:	eb 01       	movw	r28, r22
     a70:	88 81       	ld	r24, Y
     a72:	82 30       	cpi	r24, 0x02	; 2
     a74:	08 f4       	brcc	.+2      	; 0xa78 <_fpadd_parts+0x24>
     a76:	33 c1       	rjmp	.+614    	; 0xcde <_fpadd_parts+0x28a>
     a78:	94 30       	cpi	r25, 0x04	; 4
     a7a:	69 f4       	brne	.+26     	; 0xa96 <_fpadd_parts+0x42>
     a7c:	84 30       	cpi	r24, 0x04	; 4
     a7e:	09 f0       	breq	.+2      	; 0xa82 <_fpadd_parts+0x2e>
     a80:	2f c1       	rjmp	.+606    	; 0xce0 <_fpadd_parts+0x28c>
     a82:	11 96       	adiw	r26, 0x01	; 1
     a84:	9c 91       	ld	r25, X
     a86:	11 97       	sbiw	r26, 0x01	; 1
     a88:	89 81       	ldd	r24, Y+1	; 0x01
     a8a:	98 17       	cp	r25, r24
     a8c:	09 f4       	brne	.+2      	; 0xa90 <_fpadd_parts+0x3c>
     a8e:	28 c1       	rjmp	.+592    	; 0xce0 <_fpadd_parts+0x28c>
     a90:	a0 e0       	ldi	r26, 0x00	; 0
     a92:	b1 e0       	ldi	r27, 0x01	; 1
     a94:	25 c1       	rjmp	.+586    	; 0xce0 <_fpadd_parts+0x28c>
     a96:	84 30       	cpi	r24, 0x04	; 4
     a98:	09 f4       	brne	.+2      	; 0xa9c <_fpadd_parts+0x48>
     a9a:	21 c1       	rjmp	.+578    	; 0xcde <_fpadd_parts+0x28a>
     a9c:	82 30       	cpi	r24, 0x02	; 2
     a9e:	a9 f4       	brne	.+42     	; 0xaca <_fpadd_parts+0x76>
     aa0:	92 30       	cpi	r25, 0x02	; 2
     aa2:	09 f0       	breq	.+2      	; 0xaa6 <_fpadd_parts+0x52>
     aa4:	1d c1       	rjmp	.+570    	; 0xce0 <_fpadd_parts+0x28c>
     aa6:	9a 01       	movw	r18, r20
     aa8:	ad 01       	movw	r20, r26
     aaa:	88 e0       	ldi	r24, 0x08	; 8
     aac:	ea 01       	movw	r28, r20
     aae:	09 90       	ld	r0, Y+
     ab0:	ae 01       	movw	r20, r28
     ab2:	e9 01       	movw	r28, r18
     ab4:	09 92       	st	Y+, r0
     ab6:	9e 01       	movw	r18, r28
     ab8:	81 50       	subi	r24, 0x01	; 1
     aba:	c1 f7       	brne	.-16     	; 0xaac <_fpadd_parts+0x58>
     abc:	e2 01       	movw	r28, r4
     abe:	89 81       	ldd	r24, Y+1	; 0x01
     ac0:	11 96       	adiw	r26, 0x01	; 1
     ac2:	9c 91       	ld	r25, X
     ac4:	89 23       	and	r24, r25
     ac6:	81 83       	std	Z+1, r24	; 0x01
     ac8:	08 c1       	rjmp	.+528    	; 0xcda <_fpadd_parts+0x286>
     aca:	92 30       	cpi	r25, 0x02	; 2
     acc:	09 f4       	brne	.+2      	; 0xad0 <_fpadd_parts+0x7c>
     ace:	07 c1       	rjmp	.+526    	; 0xcde <_fpadd_parts+0x28a>
     ad0:	12 96       	adiw	r26, 0x02	; 2
     ad2:	2d 90       	ld	r2, X+
     ad4:	3c 90       	ld	r3, X
     ad6:	13 97       	sbiw	r26, 0x03	; 3
     ad8:	eb 01       	movw	r28, r22
     ada:	8a 81       	ldd	r24, Y+2	; 0x02
     adc:	9b 81       	ldd	r25, Y+3	; 0x03
     ade:	14 96       	adiw	r26, 0x04	; 4
     ae0:	ad 90       	ld	r10, X+
     ae2:	bd 90       	ld	r11, X+
     ae4:	cd 90       	ld	r12, X+
     ae6:	dc 90       	ld	r13, X
     ae8:	17 97       	sbiw	r26, 0x07	; 7
     aea:	ec 80       	ldd	r14, Y+4	; 0x04
     aec:	fd 80       	ldd	r15, Y+5	; 0x05
     aee:	0e 81       	ldd	r16, Y+6	; 0x06
     af0:	1f 81       	ldd	r17, Y+7	; 0x07
     af2:	91 01       	movw	r18, r2
     af4:	28 1b       	sub	r18, r24
     af6:	39 0b       	sbc	r19, r25
     af8:	b9 01       	movw	r22, r18
     afa:	37 ff       	sbrs	r19, 7
     afc:	04 c0       	rjmp	.+8      	; 0xb06 <_fpadd_parts+0xb2>
     afe:	66 27       	eor	r22, r22
     b00:	77 27       	eor	r23, r23
     b02:	62 1b       	sub	r22, r18
     b04:	73 0b       	sbc	r23, r19
     b06:	60 32       	cpi	r22, 0x20	; 32
     b08:	71 05       	cpc	r23, r1
     b0a:	0c f0       	brlt	.+2      	; 0xb0e <_fpadd_parts+0xba>
     b0c:	61 c0       	rjmp	.+194    	; 0xbd0 <_fpadd_parts+0x17c>
     b0e:	12 16       	cp	r1, r18
     b10:	13 06       	cpc	r1, r19
     b12:	6c f5       	brge	.+90     	; 0xb6e <_fpadd_parts+0x11a>
     b14:	37 01       	movw	r6, r14
     b16:	48 01       	movw	r8, r16
     b18:	06 2e       	mov	r0, r22
     b1a:	04 c0       	rjmp	.+8      	; 0xb24 <_fpadd_parts+0xd0>
     b1c:	96 94       	lsr	r9
     b1e:	87 94       	ror	r8
     b20:	77 94       	ror	r7
     b22:	67 94       	ror	r6
     b24:	0a 94       	dec	r0
     b26:	d2 f7       	brpl	.-12     	; 0xb1c <_fpadd_parts+0xc8>
     b28:	21 e0       	ldi	r18, 0x01	; 1
     b2a:	30 e0       	ldi	r19, 0x00	; 0
     b2c:	40 e0       	ldi	r20, 0x00	; 0
     b2e:	50 e0       	ldi	r21, 0x00	; 0
     b30:	04 c0       	rjmp	.+8      	; 0xb3a <_fpadd_parts+0xe6>
     b32:	22 0f       	add	r18, r18
     b34:	33 1f       	adc	r19, r19
     b36:	44 1f       	adc	r20, r20
     b38:	55 1f       	adc	r21, r21
     b3a:	6a 95       	dec	r22
     b3c:	d2 f7       	brpl	.-12     	; 0xb32 <_fpadd_parts+0xde>
     b3e:	21 50       	subi	r18, 0x01	; 1
     b40:	30 40       	sbci	r19, 0x00	; 0
     b42:	40 40       	sbci	r20, 0x00	; 0
     b44:	50 40       	sbci	r21, 0x00	; 0
     b46:	2e 21       	and	r18, r14
     b48:	3f 21       	and	r19, r15
     b4a:	40 23       	and	r20, r16
     b4c:	51 23       	and	r21, r17
     b4e:	21 15       	cp	r18, r1
     b50:	31 05       	cpc	r19, r1
     b52:	41 05       	cpc	r20, r1
     b54:	51 05       	cpc	r21, r1
     b56:	21 f0       	breq	.+8      	; 0xb60 <_fpadd_parts+0x10c>
     b58:	21 e0       	ldi	r18, 0x01	; 1
     b5a:	30 e0       	ldi	r19, 0x00	; 0
     b5c:	40 e0       	ldi	r20, 0x00	; 0
     b5e:	50 e0       	ldi	r21, 0x00	; 0
     b60:	79 01       	movw	r14, r18
     b62:	8a 01       	movw	r16, r20
     b64:	e6 28       	or	r14, r6
     b66:	f7 28       	or	r15, r7
     b68:	08 29       	or	r16, r8
     b6a:	19 29       	or	r17, r9
     b6c:	3c c0       	rjmp	.+120    	; 0xbe6 <_fpadd_parts+0x192>
     b6e:	23 2b       	or	r18, r19
     b70:	d1 f1       	breq	.+116    	; 0xbe6 <_fpadd_parts+0x192>
     b72:	26 0e       	add	r2, r22
     b74:	37 1e       	adc	r3, r23
     b76:	35 01       	movw	r6, r10
     b78:	46 01       	movw	r8, r12
     b7a:	06 2e       	mov	r0, r22
     b7c:	04 c0       	rjmp	.+8      	; 0xb86 <_fpadd_parts+0x132>
     b7e:	96 94       	lsr	r9
     b80:	87 94       	ror	r8
     b82:	77 94       	ror	r7
     b84:	67 94       	ror	r6
     b86:	0a 94       	dec	r0
     b88:	d2 f7       	brpl	.-12     	; 0xb7e <_fpadd_parts+0x12a>
     b8a:	21 e0       	ldi	r18, 0x01	; 1
     b8c:	30 e0       	ldi	r19, 0x00	; 0
     b8e:	40 e0       	ldi	r20, 0x00	; 0
     b90:	50 e0       	ldi	r21, 0x00	; 0
     b92:	04 c0       	rjmp	.+8      	; 0xb9c <_fpadd_parts+0x148>
     b94:	22 0f       	add	r18, r18
     b96:	33 1f       	adc	r19, r19
     b98:	44 1f       	adc	r20, r20
     b9a:	55 1f       	adc	r21, r21
     b9c:	6a 95       	dec	r22
     b9e:	d2 f7       	brpl	.-12     	; 0xb94 <_fpadd_parts+0x140>
     ba0:	21 50       	subi	r18, 0x01	; 1
     ba2:	30 40       	sbci	r19, 0x00	; 0
     ba4:	40 40       	sbci	r20, 0x00	; 0
     ba6:	50 40       	sbci	r21, 0x00	; 0
     ba8:	2a 21       	and	r18, r10
     baa:	3b 21       	and	r19, r11
     bac:	4c 21       	and	r20, r12
     bae:	5d 21       	and	r21, r13
     bb0:	21 15       	cp	r18, r1
     bb2:	31 05       	cpc	r19, r1
     bb4:	41 05       	cpc	r20, r1
     bb6:	51 05       	cpc	r21, r1
     bb8:	21 f0       	breq	.+8      	; 0xbc2 <_fpadd_parts+0x16e>
     bba:	21 e0       	ldi	r18, 0x01	; 1
     bbc:	30 e0       	ldi	r19, 0x00	; 0
     bbe:	40 e0       	ldi	r20, 0x00	; 0
     bc0:	50 e0       	ldi	r21, 0x00	; 0
     bc2:	59 01       	movw	r10, r18
     bc4:	6a 01       	movw	r12, r20
     bc6:	a6 28       	or	r10, r6
     bc8:	b7 28       	or	r11, r7
     bca:	c8 28       	or	r12, r8
     bcc:	d9 28       	or	r13, r9
     bce:	0b c0       	rjmp	.+22     	; 0xbe6 <_fpadd_parts+0x192>
     bd0:	82 15       	cp	r24, r2
     bd2:	93 05       	cpc	r25, r3
     bd4:	2c f0       	brlt	.+10     	; 0xbe0 <_fpadd_parts+0x18c>
     bd6:	1c 01       	movw	r2, r24
     bd8:	aa 24       	eor	r10, r10
     bda:	bb 24       	eor	r11, r11
     bdc:	65 01       	movw	r12, r10
     bde:	03 c0       	rjmp	.+6      	; 0xbe6 <_fpadd_parts+0x192>
     be0:	ee 24       	eor	r14, r14
     be2:	ff 24       	eor	r15, r15
     be4:	87 01       	movw	r16, r14
     be6:	11 96       	adiw	r26, 0x01	; 1
     be8:	9c 91       	ld	r25, X
     bea:	d2 01       	movw	r26, r4
     bec:	11 96       	adiw	r26, 0x01	; 1
     bee:	8c 91       	ld	r24, X
     bf0:	98 17       	cp	r25, r24
     bf2:	09 f4       	brne	.+2      	; 0xbf6 <_fpadd_parts+0x1a2>
     bf4:	45 c0       	rjmp	.+138    	; 0xc80 <_fpadd_parts+0x22c>
     bf6:	99 23       	and	r25, r25
     bf8:	39 f0       	breq	.+14     	; 0xc08 <_fpadd_parts+0x1b4>
     bfa:	a8 01       	movw	r20, r16
     bfc:	97 01       	movw	r18, r14
     bfe:	2a 19       	sub	r18, r10
     c00:	3b 09       	sbc	r19, r11
     c02:	4c 09       	sbc	r20, r12
     c04:	5d 09       	sbc	r21, r13
     c06:	06 c0       	rjmp	.+12     	; 0xc14 <_fpadd_parts+0x1c0>
     c08:	a6 01       	movw	r20, r12
     c0a:	95 01       	movw	r18, r10
     c0c:	2e 19       	sub	r18, r14
     c0e:	3f 09       	sbc	r19, r15
     c10:	40 0b       	sbc	r20, r16
     c12:	51 0b       	sbc	r21, r17
     c14:	57 fd       	sbrc	r21, 7
     c16:	08 c0       	rjmp	.+16     	; 0xc28 <_fpadd_parts+0x1d4>
     c18:	11 82       	std	Z+1, r1	; 0x01
     c1a:	33 82       	std	Z+3, r3	; 0x03
     c1c:	22 82       	std	Z+2, r2	; 0x02
     c1e:	24 83       	std	Z+4, r18	; 0x04
     c20:	35 83       	std	Z+5, r19	; 0x05
     c22:	46 83       	std	Z+6, r20	; 0x06
     c24:	57 83       	std	Z+7, r21	; 0x07
     c26:	1d c0       	rjmp	.+58     	; 0xc62 <_fpadd_parts+0x20e>
     c28:	81 e0       	ldi	r24, 0x01	; 1
     c2a:	81 83       	std	Z+1, r24	; 0x01
     c2c:	33 82       	std	Z+3, r3	; 0x03
     c2e:	22 82       	std	Z+2, r2	; 0x02
     c30:	88 27       	eor	r24, r24
     c32:	99 27       	eor	r25, r25
     c34:	dc 01       	movw	r26, r24
     c36:	82 1b       	sub	r24, r18
     c38:	93 0b       	sbc	r25, r19
     c3a:	a4 0b       	sbc	r26, r20
     c3c:	b5 0b       	sbc	r27, r21
     c3e:	84 83       	std	Z+4, r24	; 0x04
     c40:	95 83       	std	Z+5, r25	; 0x05
     c42:	a6 83       	std	Z+6, r26	; 0x06
     c44:	b7 83       	std	Z+7, r27	; 0x07
     c46:	0d c0       	rjmp	.+26     	; 0xc62 <_fpadd_parts+0x20e>
     c48:	22 0f       	add	r18, r18
     c4a:	33 1f       	adc	r19, r19
     c4c:	44 1f       	adc	r20, r20
     c4e:	55 1f       	adc	r21, r21
     c50:	24 83       	std	Z+4, r18	; 0x04
     c52:	35 83       	std	Z+5, r19	; 0x05
     c54:	46 83       	std	Z+6, r20	; 0x06
     c56:	57 83       	std	Z+7, r21	; 0x07
     c58:	82 81       	ldd	r24, Z+2	; 0x02
     c5a:	93 81       	ldd	r25, Z+3	; 0x03
     c5c:	01 97       	sbiw	r24, 0x01	; 1
     c5e:	93 83       	std	Z+3, r25	; 0x03
     c60:	82 83       	std	Z+2, r24	; 0x02
     c62:	24 81       	ldd	r18, Z+4	; 0x04
     c64:	35 81       	ldd	r19, Z+5	; 0x05
     c66:	46 81       	ldd	r20, Z+6	; 0x06
     c68:	57 81       	ldd	r21, Z+7	; 0x07
     c6a:	da 01       	movw	r26, r20
     c6c:	c9 01       	movw	r24, r18
     c6e:	01 97       	sbiw	r24, 0x01	; 1
     c70:	a1 09       	sbc	r26, r1
     c72:	b1 09       	sbc	r27, r1
     c74:	8f 5f       	subi	r24, 0xFF	; 255
     c76:	9f 4f       	sbci	r25, 0xFF	; 255
     c78:	af 4f       	sbci	r26, 0xFF	; 255
     c7a:	bf 43       	sbci	r27, 0x3F	; 63
     c7c:	28 f3       	brcs	.-54     	; 0xc48 <_fpadd_parts+0x1f4>
     c7e:	0b c0       	rjmp	.+22     	; 0xc96 <_fpadd_parts+0x242>
     c80:	91 83       	std	Z+1, r25	; 0x01
     c82:	33 82       	std	Z+3, r3	; 0x03
     c84:	22 82       	std	Z+2, r2	; 0x02
     c86:	ea 0c       	add	r14, r10
     c88:	fb 1c       	adc	r15, r11
     c8a:	0c 1d       	adc	r16, r12
     c8c:	1d 1d       	adc	r17, r13
     c8e:	e4 82       	std	Z+4, r14	; 0x04
     c90:	f5 82       	std	Z+5, r15	; 0x05
     c92:	06 83       	std	Z+6, r16	; 0x06
     c94:	17 83       	std	Z+7, r17	; 0x07
     c96:	83 e0       	ldi	r24, 0x03	; 3
     c98:	80 83       	st	Z, r24
     c9a:	24 81       	ldd	r18, Z+4	; 0x04
     c9c:	35 81       	ldd	r19, Z+5	; 0x05
     c9e:	46 81       	ldd	r20, Z+6	; 0x06
     ca0:	57 81       	ldd	r21, Z+7	; 0x07
     ca2:	57 ff       	sbrs	r21, 7
     ca4:	1a c0       	rjmp	.+52     	; 0xcda <_fpadd_parts+0x286>
     ca6:	c9 01       	movw	r24, r18
     ca8:	aa 27       	eor	r26, r26
     caa:	97 fd       	sbrc	r25, 7
     cac:	a0 95       	com	r26
     cae:	ba 2f       	mov	r27, r26
     cb0:	81 70       	andi	r24, 0x01	; 1
     cb2:	90 70       	andi	r25, 0x00	; 0
     cb4:	a0 70       	andi	r26, 0x00	; 0
     cb6:	b0 70       	andi	r27, 0x00	; 0
     cb8:	56 95       	lsr	r21
     cba:	47 95       	ror	r20
     cbc:	37 95       	ror	r19
     cbe:	27 95       	ror	r18
     cc0:	82 2b       	or	r24, r18
     cc2:	93 2b       	or	r25, r19
     cc4:	a4 2b       	or	r26, r20
     cc6:	b5 2b       	or	r27, r21
     cc8:	84 83       	std	Z+4, r24	; 0x04
     cca:	95 83       	std	Z+5, r25	; 0x05
     ccc:	a6 83       	std	Z+6, r26	; 0x06
     cce:	b7 83       	std	Z+7, r27	; 0x07
     cd0:	82 81       	ldd	r24, Z+2	; 0x02
     cd2:	93 81       	ldd	r25, Z+3	; 0x03
     cd4:	01 96       	adiw	r24, 0x01	; 1
     cd6:	93 83       	std	Z+3, r25	; 0x03
     cd8:	82 83       	std	Z+2, r24	; 0x02
     cda:	df 01       	movw	r26, r30
     cdc:	01 c0       	rjmp	.+2      	; 0xce0 <_fpadd_parts+0x28c>
     cde:	d2 01       	movw	r26, r4
     ce0:	cd 01       	movw	r24, r26
     ce2:	cd b7       	in	r28, 0x3d	; 61
     ce4:	de b7       	in	r29, 0x3e	; 62
     ce6:	e2 e1       	ldi	r30, 0x12	; 18
     ce8:	0c 94 3c 0b 	jmp	0x1678	; 0x1678 <__epilogue_restores__>

00000cec <__subsf3>:
     cec:	a0 e2       	ldi	r26, 0x20	; 32
     cee:	b0 e0       	ldi	r27, 0x00	; 0
     cf0:	ec e7       	ldi	r30, 0x7C	; 124
     cf2:	f6 e0       	ldi	r31, 0x06	; 6
     cf4:	0c 94 2c 0b 	jmp	0x1658	; 0x1658 <__prologue_saves__+0x18>
     cf8:	69 83       	std	Y+1, r22	; 0x01
     cfa:	7a 83       	std	Y+2, r23	; 0x02
     cfc:	8b 83       	std	Y+3, r24	; 0x03
     cfe:	9c 83       	std	Y+4, r25	; 0x04
     d00:	2d 83       	std	Y+5, r18	; 0x05
     d02:	3e 83       	std	Y+6, r19	; 0x06
     d04:	4f 83       	std	Y+7, r20	; 0x07
     d06:	58 87       	std	Y+8, r21	; 0x08
     d08:	e9 e0       	ldi	r30, 0x09	; 9
     d0a:	ee 2e       	mov	r14, r30
     d0c:	f1 2c       	mov	r15, r1
     d0e:	ec 0e       	add	r14, r28
     d10:	fd 1e       	adc	r15, r29
     d12:	ce 01       	movw	r24, r28
     d14:	01 96       	adiw	r24, 0x01	; 1
     d16:	b7 01       	movw	r22, r14
     d18:	0e 94 4f 0a 	call	0x149e	; 0x149e <__unpack_f>
     d1c:	8e 01       	movw	r16, r28
     d1e:	0f 5e       	subi	r16, 0xEF	; 239
     d20:	1f 4f       	sbci	r17, 0xFF	; 255
     d22:	ce 01       	movw	r24, r28
     d24:	05 96       	adiw	r24, 0x05	; 5
     d26:	b8 01       	movw	r22, r16
     d28:	0e 94 4f 0a 	call	0x149e	; 0x149e <__unpack_f>
     d2c:	8a 89       	ldd	r24, Y+18	; 0x12
     d2e:	91 e0       	ldi	r25, 0x01	; 1
     d30:	89 27       	eor	r24, r25
     d32:	8a 8b       	std	Y+18, r24	; 0x12
     d34:	c7 01       	movw	r24, r14
     d36:	b8 01       	movw	r22, r16
     d38:	ae 01       	movw	r20, r28
     d3a:	47 5e       	subi	r20, 0xE7	; 231
     d3c:	5f 4f       	sbci	r21, 0xFF	; 255
     d3e:	0e 94 2a 05 	call	0xa54	; 0xa54 <_fpadd_parts>
     d42:	0e 94 7a 09 	call	0x12f4	; 0x12f4 <__pack_f>
     d46:	a0 96       	adiw	r28, 0x20	; 32
     d48:	e6 e0       	ldi	r30, 0x06	; 6
     d4a:	0c 94 48 0b 	jmp	0x1690	; 0x1690 <__epilogue_restores__+0x18>

00000d4e <__addsf3>:
     d4e:	a0 e2       	ldi	r26, 0x20	; 32
     d50:	b0 e0       	ldi	r27, 0x00	; 0
     d52:	ed ea       	ldi	r30, 0xAD	; 173
     d54:	f6 e0       	ldi	r31, 0x06	; 6
     d56:	0c 94 2c 0b 	jmp	0x1658	; 0x1658 <__prologue_saves__+0x18>
     d5a:	69 83       	std	Y+1, r22	; 0x01
     d5c:	7a 83       	std	Y+2, r23	; 0x02
     d5e:	8b 83       	std	Y+3, r24	; 0x03
     d60:	9c 83       	std	Y+4, r25	; 0x04
     d62:	2d 83       	std	Y+5, r18	; 0x05
     d64:	3e 83       	std	Y+6, r19	; 0x06
     d66:	4f 83       	std	Y+7, r20	; 0x07
     d68:	58 87       	std	Y+8, r21	; 0x08
     d6a:	f9 e0       	ldi	r31, 0x09	; 9
     d6c:	ef 2e       	mov	r14, r31
     d6e:	f1 2c       	mov	r15, r1
     d70:	ec 0e       	add	r14, r28
     d72:	fd 1e       	adc	r15, r29
     d74:	ce 01       	movw	r24, r28
     d76:	01 96       	adiw	r24, 0x01	; 1
     d78:	b7 01       	movw	r22, r14
     d7a:	0e 94 4f 0a 	call	0x149e	; 0x149e <__unpack_f>
     d7e:	8e 01       	movw	r16, r28
     d80:	0f 5e       	subi	r16, 0xEF	; 239
     d82:	1f 4f       	sbci	r17, 0xFF	; 255
     d84:	ce 01       	movw	r24, r28
     d86:	05 96       	adiw	r24, 0x05	; 5
     d88:	b8 01       	movw	r22, r16
     d8a:	0e 94 4f 0a 	call	0x149e	; 0x149e <__unpack_f>
     d8e:	c7 01       	movw	r24, r14
     d90:	b8 01       	movw	r22, r16
     d92:	ae 01       	movw	r20, r28
     d94:	47 5e       	subi	r20, 0xE7	; 231
     d96:	5f 4f       	sbci	r21, 0xFF	; 255
     d98:	0e 94 2a 05 	call	0xa54	; 0xa54 <_fpadd_parts>
     d9c:	0e 94 7a 09 	call	0x12f4	; 0x12f4 <__pack_f>
     da0:	a0 96       	adiw	r28, 0x20	; 32
     da2:	e6 e0       	ldi	r30, 0x06	; 6
     da4:	0c 94 48 0b 	jmp	0x1690	; 0x1690 <__epilogue_restores__+0x18>

00000da8 <__mulsf3>:
     da8:	a0 e2       	ldi	r26, 0x20	; 32
     daa:	b0 e0       	ldi	r27, 0x00	; 0
     dac:	ea ed       	ldi	r30, 0xDA	; 218
     dae:	f6 e0       	ldi	r31, 0x06	; 6
     db0:	0c 94 20 0b 	jmp	0x1640	; 0x1640 <__prologue_saves__>
     db4:	69 83       	std	Y+1, r22	; 0x01
     db6:	7a 83       	std	Y+2, r23	; 0x02
     db8:	8b 83       	std	Y+3, r24	; 0x03
     dba:	9c 83       	std	Y+4, r25	; 0x04
     dbc:	2d 83       	std	Y+5, r18	; 0x05
     dbe:	3e 83       	std	Y+6, r19	; 0x06
     dc0:	4f 83       	std	Y+7, r20	; 0x07
     dc2:	58 87       	std	Y+8, r21	; 0x08
     dc4:	ce 01       	movw	r24, r28
     dc6:	01 96       	adiw	r24, 0x01	; 1
     dc8:	be 01       	movw	r22, r28
     dca:	67 5f       	subi	r22, 0xF7	; 247
     dcc:	7f 4f       	sbci	r23, 0xFF	; 255
     dce:	0e 94 4f 0a 	call	0x149e	; 0x149e <__unpack_f>
     dd2:	ce 01       	movw	r24, r28
     dd4:	05 96       	adiw	r24, 0x05	; 5
     dd6:	be 01       	movw	r22, r28
     dd8:	6f 5e       	subi	r22, 0xEF	; 239
     dda:	7f 4f       	sbci	r23, 0xFF	; 255
     ddc:	0e 94 4f 0a 	call	0x149e	; 0x149e <__unpack_f>
     de0:	99 85       	ldd	r25, Y+9	; 0x09
     de2:	92 30       	cpi	r25, 0x02	; 2
     de4:	88 f0       	brcs	.+34     	; 0xe08 <__mulsf3+0x60>
     de6:	89 89       	ldd	r24, Y+17	; 0x11
     de8:	82 30       	cpi	r24, 0x02	; 2
     dea:	c8 f0       	brcs	.+50     	; 0xe1e <__mulsf3+0x76>
     dec:	94 30       	cpi	r25, 0x04	; 4
     dee:	19 f4       	brne	.+6      	; 0xdf6 <__mulsf3+0x4e>
     df0:	82 30       	cpi	r24, 0x02	; 2
     df2:	51 f4       	brne	.+20     	; 0xe08 <__mulsf3+0x60>
     df4:	04 c0       	rjmp	.+8      	; 0xdfe <__mulsf3+0x56>
     df6:	84 30       	cpi	r24, 0x04	; 4
     df8:	29 f4       	brne	.+10     	; 0xe04 <__mulsf3+0x5c>
     dfa:	92 30       	cpi	r25, 0x02	; 2
     dfc:	81 f4       	brne	.+32     	; 0xe1e <__mulsf3+0x76>
     dfe:	80 e0       	ldi	r24, 0x00	; 0
     e00:	91 e0       	ldi	r25, 0x01	; 1
     e02:	c6 c0       	rjmp	.+396    	; 0xf90 <__mulsf3+0x1e8>
     e04:	92 30       	cpi	r25, 0x02	; 2
     e06:	49 f4       	brne	.+18     	; 0xe1a <__mulsf3+0x72>
     e08:	20 e0       	ldi	r18, 0x00	; 0
     e0a:	9a 85       	ldd	r25, Y+10	; 0x0a
     e0c:	8a 89       	ldd	r24, Y+18	; 0x12
     e0e:	98 13       	cpse	r25, r24
     e10:	21 e0       	ldi	r18, 0x01	; 1
     e12:	2a 87       	std	Y+10, r18	; 0x0a
     e14:	ce 01       	movw	r24, r28
     e16:	09 96       	adiw	r24, 0x09	; 9
     e18:	bb c0       	rjmp	.+374    	; 0xf90 <__mulsf3+0x1e8>
     e1a:	82 30       	cpi	r24, 0x02	; 2
     e1c:	49 f4       	brne	.+18     	; 0xe30 <__mulsf3+0x88>
     e1e:	20 e0       	ldi	r18, 0x00	; 0
     e20:	9a 85       	ldd	r25, Y+10	; 0x0a
     e22:	8a 89       	ldd	r24, Y+18	; 0x12
     e24:	98 13       	cpse	r25, r24
     e26:	21 e0       	ldi	r18, 0x01	; 1
     e28:	2a 8b       	std	Y+18, r18	; 0x12
     e2a:	ce 01       	movw	r24, r28
     e2c:	41 96       	adiw	r24, 0x11	; 17
     e2e:	b0 c0       	rjmp	.+352    	; 0xf90 <__mulsf3+0x1e8>
     e30:	2d 84       	ldd	r2, Y+13	; 0x0d
     e32:	3e 84       	ldd	r3, Y+14	; 0x0e
     e34:	4f 84       	ldd	r4, Y+15	; 0x0f
     e36:	58 88       	ldd	r5, Y+16	; 0x10
     e38:	6d 88       	ldd	r6, Y+21	; 0x15
     e3a:	7e 88       	ldd	r7, Y+22	; 0x16
     e3c:	8f 88       	ldd	r8, Y+23	; 0x17
     e3e:	98 8c       	ldd	r9, Y+24	; 0x18
     e40:	ee 24       	eor	r14, r14
     e42:	ff 24       	eor	r15, r15
     e44:	87 01       	movw	r16, r14
     e46:	aa 24       	eor	r10, r10
     e48:	bb 24       	eor	r11, r11
     e4a:	65 01       	movw	r12, r10
     e4c:	40 e0       	ldi	r20, 0x00	; 0
     e4e:	50 e0       	ldi	r21, 0x00	; 0
     e50:	60 e0       	ldi	r22, 0x00	; 0
     e52:	70 e0       	ldi	r23, 0x00	; 0
     e54:	e0 e0       	ldi	r30, 0x00	; 0
     e56:	f0 e0       	ldi	r31, 0x00	; 0
     e58:	c1 01       	movw	r24, r2
     e5a:	81 70       	andi	r24, 0x01	; 1
     e5c:	90 70       	andi	r25, 0x00	; 0
     e5e:	89 2b       	or	r24, r25
     e60:	e9 f0       	breq	.+58     	; 0xe9c <__mulsf3+0xf4>
     e62:	e6 0c       	add	r14, r6
     e64:	f7 1c       	adc	r15, r7
     e66:	08 1d       	adc	r16, r8
     e68:	19 1d       	adc	r17, r9
     e6a:	9a 01       	movw	r18, r20
     e6c:	ab 01       	movw	r20, r22
     e6e:	2a 0d       	add	r18, r10
     e70:	3b 1d       	adc	r19, r11
     e72:	4c 1d       	adc	r20, r12
     e74:	5d 1d       	adc	r21, r13
     e76:	80 e0       	ldi	r24, 0x00	; 0
     e78:	90 e0       	ldi	r25, 0x00	; 0
     e7a:	a0 e0       	ldi	r26, 0x00	; 0
     e7c:	b0 e0       	ldi	r27, 0x00	; 0
     e7e:	e6 14       	cp	r14, r6
     e80:	f7 04       	cpc	r15, r7
     e82:	08 05       	cpc	r16, r8
     e84:	19 05       	cpc	r17, r9
     e86:	20 f4       	brcc	.+8      	; 0xe90 <__mulsf3+0xe8>
     e88:	81 e0       	ldi	r24, 0x01	; 1
     e8a:	90 e0       	ldi	r25, 0x00	; 0
     e8c:	a0 e0       	ldi	r26, 0x00	; 0
     e8e:	b0 e0       	ldi	r27, 0x00	; 0
     e90:	ba 01       	movw	r22, r20
     e92:	a9 01       	movw	r20, r18
     e94:	48 0f       	add	r20, r24
     e96:	59 1f       	adc	r21, r25
     e98:	6a 1f       	adc	r22, r26
     e9a:	7b 1f       	adc	r23, r27
     e9c:	aa 0c       	add	r10, r10
     e9e:	bb 1c       	adc	r11, r11
     ea0:	cc 1c       	adc	r12, r12
     ea2:	dd 1c       	adc	r13, r13
     ea4:	97 fe       	sbrs	r9, 7
     ea6:	08 c0       	rjmp	.+16     	; 0xeb8 <__mulsf3+0x110>
     ea8:	81 e0       	ldi	r24, 0x01	; 1
     eaa:	90 e0       	ldi	r25, 0x00	; 0
     eac:	a0 e0       	ldi	r26, 0x00	; 0
     eae:	b0 e0       	ldi	r27, 0x00	; 0
     eb0:	a8 2a       	or	r10, r24
     eb2:	b9 2a       	or	r11, r25
     eb4:	ca 2a       	or	r12, r26
     eb6:	db 2a       	or	r13, r27
     eb8:	31 96       	adiw	r30, 0x01	; 1
     eba:	e0 32       	cpi	r30, 0x20	; 32
     ebc:	f1 05       	cpc	r31, r1
     ebe:	49 f0       	breq	.+18     	; 0xed2 <__mulsf3+0x12a>
     ec0:	66 0c       	add	r6, r6
     ec2:	77 1c       	adc	r7, r7
     ec4:	88 1c       	adc	r8, r8
     ec6:	99 1c       	adc	r9, r9
     ec8:	56 94       	lsr	r5
     eca:	47 94       	ror	r4
     ecc:	37 94       	ror	r3
     ece:	27 94       	ror	r2
     ed0:	c3 cf       	rjmp	.-122    	; 0xe58 <__mulsf3+0xb0>
     ed2:	fa 85       	ldd	r31, Y+10	; 0x0a
     ed4:	ea 89       	ldd	r30, Y+18	; 0x12
     ed6:	2b 89       	ldd	r18, Y+19	; 0x13
     ed8:	3c 89       	ldd	r19, Y+20	; 0x14
     eda:	8b 85       	ldd	r24, Y+11	; 0x0b
     edc:	9c 85       	ldd	r25, Y+12	; 0x0c
     ede:	28 0f       	add	r18, r24
     ee0:	39 1f       	adc	r19, r25
     ee2:	2e 5f       	subi	r18, 0xFE	; 254
     ee4:	3f 4f       	sbci	r19, 0xFF	; 255
     ee6:	17 c0       	rjmp	.+46     	; 0xf16 <__mulsf3+0x16e>
     ee8:	ca 01       	movw	r24, r20
     eea:	81 70       	andi	r24, 0x01	; 1
     eec:	90 70       	andi	r25, 0x00	; 0
     eee:	89 2b       	or	r24, r25
     ef0:	61 f0       	breq	.+24     	; 0xf0a <__mulsf3+0x162>
     ef2:	16 95       	lsr	r17
     ef4:	07 95       	ror	r16
     ef6:	f7 94       	ror	r15
     ef8:	e7 94       	ror	r14
     efa:	80 e0       	ldi	r24, 0x00	; 0
     efc:	90 e0       	ldi	r25, 0x00	; 0
     efe:	a0 e0       	ldi	r26, 0x00	; 0
     f00:	b0 e8       	ldi	r27, 0x80	; 128
     f02:	e8 2a       	or	r14, r24
     f04:	f9 2a       	or	r15, r25
     f06:	0a 2b       	or	r16, r26
     f08:	1b 2b       	or	r17, r27
     f0a:	76 95       	lsr	r23
     f0c:	67 95       	ror	r22
     f0e:	57 95       	ror	r21
     f10:	47 95       	ror	r20
     f12:	2f 5f       	subi	r18, 0xFF	; 255
     f14:	3f 4f       	sbci	r19, 0xFF	; 255
     f16:	77 fd       	sbrc	r23, 7
     f18:	e7 cf       	rjmp	.-50     	; 0xee8 <__mulsf3+0x140>
     f1a:	0c c0       	rjmp	.+24     	; 0xf34 <__mulsf3+0x18c>
     f1c:	44 0f       	add	r20, r20
     f1e:	55 1f       	adc	r21, r21
     f20:	66 1f       	adc	r22, r22
     f22:	77 1f       	adc	r23, r23
     f24:	17 fd       	sbrc	r17, 7
     f26:	41 60       	ori	r20, 0x01	; 1
     f28:	ee 0c       	add	r14, r14
     f2a:	ff 1c       	adc	r15, r15
     f2c:	00 1f       	adc	r16, r16
     f2e:	11 1f       	adc	r17, r17
     f30:	21 50       	subi	r18, 0x01	; 1
     f32:	30 40       	sbci	r19, 0x00	; 0
     f34:	40 30       	cpi	r20, 0x00	; 0
     f36:	90 e0       	ldi	r25, 0x00	; 0
     f38:	59 07       	cpc	r21, r25
     f3a:	90 e0       	ldi	r25, 0x00	; 0
     f3c:	69 07       	cpc	r22, r25
     f3e:	90 e4       	ldi	r25, 0x40	; 64
     f40:	79 07       	cpc	r23, r25
     f42:	60 f3       	brcs	.-40     	; 0xf1c <__mulsf3+0x174>
     f44:	2b 8f       	std	Y+27, r18	; 0x1b
     f46:	3c 8f       	std	Y+28, r19	; 0x1c
     f48:	db 01       	movw	r26, r22
     f4a:	ca 01       	movw	r24, r20
     f4c:	8f 77       	andi	r24, 0x7F	; 127
     f4e:	90 70       	andi	r25, 0x00	; 0
     f50:	a0 70       	andi	r26, 0x00	; 0
     f52:	b0 70       	andi	r27, 0x00	; 0
     f54:	80 34       	cpi	r24, 0x40	; 64
     f56:	91 05       	cpc	r25, r1
     f58:	a1 05       	cpc	r26, r1
     f5a:	b1 05       	cpc	r27, r1
     f5c:	61 f4       	brne	.+24     	; 0xf76 <__mulsf3+0x1ce>
     f5e:	47 fd       	sbrc	r20, 7
     f60:	0a c0       	rjmp	.+20     	; 0xf76 <__mulsf3+0x1ce>
     f62:	e1 14       	cp	r14, r1
     f64:	f1 04       	cpc	r15, r1
     f66:	01 05       	cpc	r16, r1
     f68:	11 05       	cpc	r17, r1
     f6a:	29 f0       	breq	.+10     	; 0xf76 <__mulsf3+0x1ce>
     f6c:	40 5c       	subi	r20, 0xC0	; 192
     f6e:	5f 4f       	sbci	r21, 0xFF	; 255
     f70:	6f 4f       	sbci	r22, 0xFF	; 255
     f72:	7f 4f       	sbci	r23, 0xFF	; 255
     f74:	40 78       	andi	r20, 0x80	; 128
     f76:	1a 8e       	std	Y+26, r1	; 0x1a
     f78:	fe 17       	cp	r31, r30
     f7a:	11 f0       	breq	.+4      	; 0xf80 <__mulsf3+0x1d8>
     f7c:	81 e0       	ldi	r24, 0x01	; 1
     f7e:	8a 8f       	std	Y+26, r24	; 0x1a
     f80:	4d 8f       	std	Y+29, r20	; 0x1d
     f82:	5e 8f       	std	Y+30, r21	; 0x1e
     f84:	6f 8f       	std	Y+31, r22	; 0x1f
     f86:	78 a3       	std	Y+32, r23	; 0x20
     f88:	83 e0       	ldi	r24, 0x03	; 3
     f8a:	89 8f       	std	Y+25, r24	; 0x19
     f8c:	ce 01       	movw	r24, r28
     f8e:	49 96       	adiw	r24, 0x19	; 25
     f90:	0e 94 7a 09 	call	0x12f4	; 0x12f4 <__pack_f>
     f94:	a0 96       	adiw	r28, 0x20	; 32
     f96:	e2 e1       	ldi	r30, 0x12	; 18
     f98:	0c 94 3c 0b 	jmp	0x1678	; 0x1678 <__epilogue_restores__>

00000f9c <__gtsf2>:
     f9c:	a8 e1       	ldi	r26, 0x18	; 24
     f9e:	b0 e0       	ldi	r27, 0x00	; 0
     fa0:	e4 ed       	ldi	r30, 0xD4	; 212
     fa2:	f7 e0       	ldi	r31, 0x07	; 7
     fa4:	0c 94 2c 0b 	jmp	0x1658	; 0x1658 <__prologue_saves__+0x18>
     fa8:	69 83       	std	Y+1, r22	; 0x01
     faa:	7a 83       	std	Y+2, r23	; 0x02
     fac:	8b 83       	std	Y+3, r24	; 0x03
     fae:	9c 83       	std	Y+4, r25	; 0x04
     fb0:	2d 83       	std	Y+5, r18	; 0x05
     fb2:	3e 83       	std	Y+6, r19	; 0x06
     fb4:	4f 83       	std	Y+7, r20	; 0x07
     fb6:	58 87       	std	Y+8, r21	; 0x08
     fb8:	89 e0       	ldi	r24, 0x09	; 9
     fba:	e8 2e       	mov	r14, r24
     fbc:	f1 2c       	mov	r15, r1
     fbe:	ec 0e       	add	r14, r28
     fc0:	fd 1e       	adc	r15, r29
     fc2:	ce 01       	movw	r24, r28
     fc4:	01 96       	adiw	r24, 0x01	; 1
     fc6:	b7 01       	movw	r22, r14
     fc8:	0e 94 4f 0a 	call	0x149e	; 0x149e <__unpack_f>
     fcc:	8e 01       	movw	r16, r28
     fce:	0f 5e       	subi	r16, 0xEF	; 239
     fd0:	1f 4f       	sbci	r17, 0xFF	; 255
     fd2:	ce 01       	movw	r24, r28
     fd4:	05 96       	adiw	r24, 0x05	; 5
     fd6:	b8 01       	movw	r22, r16
     fd8:	0e 94 4f 0a 	call	0x149e	; 0x149e <__unpack_f>
     fdc:	89 85       	ldd	r24, Y+9	; 0x09
     fde:	82 30       	cpi	r24, 0x02	; 2
     fe0:	40 f0       	brcs	.+16     	; 0xff2 <__gtsf2+0x56>
     fe2:	89 89       	ldd	r24, Y+17	; 0x11
     fe4:	82 30       	cpi	r24, 0x02	; 2
     fe6:	28 f0       	brcs	.+10     	; 0xff2 <__gtsf2+0x56>
     fe8:	c7 01       	movw	r24, r14
     fea:	b8 01       	movw	r22, r16
     fec:	0e 94 c7 0a 	call	0x158e	; 0x158e <__fpcmp_parts_f>
     ff0:	01 c0       	rjmp	.+2      	; 0xff4 <__gtsf2+0x58>
     ff2:	8f ef       	ldi	r24, 0xFF	; 255
     ff4:	68 96       	adiw	r28, 0x18	; 24
     ff6:	e6 e0       	ldi	r30, 0x06	; 6
     ff8:	0c 94 48 0b 	jmp	0x1690	; 0x1690 <__epilogue_restores__+0x18>

00000ffc <__gesf2>:
     ffc:	a8 e1       	ldi	r26, 0x18	; 24
     ffe:	b0 e0       	ldi	r27, 0x00	; 0
    1000:	e4 e0       	ldi	r30, 0x04	; 4
    1002:	f8 e0       	ldi	r31, 0x08	; 8
    1004:	0c 94 2c 0b 	jmp	0x1658	; 0x1658 <__prologue_saves__+0x18>
    1008:	69 83       	std	Y+1, r22	; 0x01
    100a:	7a 83       	std	Y+2, r23	; 0x02
    100c:	8b 83       	std	Y+3, r24	; 0x03
    100e:	9c 83       	std	Y+4, r25	; 0x04
    1010:	2d 83       	std	Y+5, r18	; 0x05
    1012:	3e 83       	std	Y+6, r19	; 0x06
    1014:	4f 83       	std	Y+7, r20	; 0x07
    1016:	58 87       	std	Y+8, r21	; 0x08
    1018:	89 e0       	ldi	r24, 0x09	; 9
    101a:	e8 2e       	mov	r14, r24
    101c:	f1 2c       	mov	r15, r1
    101e:	ec 0e       	add	r14, r28
    1020:	fd 1e       	adc	r15, r29
    1022:	ce 01       	movw	r24, r28
    1024:	01 96       	adiw	r24, 0x01	; 1
    1026:	b7 01       	movw	r22, r14
    1028:	0e 94 4f 0a 	call	0x149e	; 0x149e <__unpack_f>
    102c:	8e 01       	movw	r16, r28
    102e:	0f 5e       	subi	r16, 0xEF	; 239
    1030:	1f 4f       	sbci	r17, 0xFF	; 255
    1032:	ce 01       	movw	r24, r28
    1034:	05 96       	adiw	r24, 0x05	; 5
    1036:	b8 01       	movw	r22, r16
    1038:	0e 94 4f 0a 	call	0x149e	; 0x149e <__unpack_f>
    103c:	89 85       	ldd	r24, Y+9	; 0x09
    103e:	82 30       	cpi	r24, 0x02	; 2
    1040:	40 f0       	brcs	.+16     	; 0x1052 <__gesf2+0x56>
    1042:	89 89       	ldd	r24, Y+17	; 0x11
    1044:	82 30       	cpi	r24, 0x02	; 2
    1046:	28 f0       	brcs	.+10     	; 0x1052 <__gesf2+0x56>
    1048:	c7 01       	movw	r24, r14
    104a:	b8 01       	movw	r22, r16
    104c:	0e 94 c7 0a 	call	0x158e	; 0x158e <__fpcmp_parts_f>
    1050:	01 c0       	rjmp	.+2      	; 0x1054 <__gesf2+0x58>
    1052:	8f ef       	ldi	r24, 0xFF	; 255
    1054:	68 96       	adiw	r28, 0x18	; 24
    1056:	e6 e0       	ldi	r30, 0x06	; 6
    1058:	0c 94 48 0b 	jmp	0x1690	; 0x1690 <__epilogue_restores__+0x18>

0000105c <__ltsf2>:
    105c:	a8 e1       	ldi	r26, 0x18	; 24
    105e:	b0 e0       	ldi	r27, 0x00	; 0
    1060:	e4 e3       	ldi	r30, 0x34	; 52
    1062:	f8 e0       	ldi	r31, 0x08	; 8
    1064:	0c 94 2c 0b 	jmp	0x1658	; 0x1658 <__prologue_saves__+0x18>
    1068:	69 83       	std	Y+1, r22	; 0x01
    106a:	7a 83       	std	Y+2, r23	; 0x02
    106c:	8b 83       	std	Y+3, r24	; 0x03
    106e:	9c 83       	std	Y+4, r25	; 0x04
    1070:	2d 83       	std	Y+5, r18	; 0x05
    1072:	3e 83       	std	Y+6, r19	; 0x06
    1074:	4f 83       	std	Y+7, r20	; 0x07
    1076:	58 87       	std	Y+8, r21	; 0x08
    1078:	89 e0       	ldi	r24, 0x09	; 9
    107a:	e8 2e       	mov	r14, r24
    107c:	f1 2c       	mov	r15, r1
    107e:	ec 0e       	add	r14, r28
    1080:	fd 1e       	adc	r15, r29
    1082:	ce 01       	movw	r24, r28
    1084:	01 96       	adiw	r24, 0x01	; 1
    1086:	b7 01       	movw	r22, r14
    1088:	0e 94 4f 0a 	call	0x149e	; 0x149e <__unpack_f>
    108c:	8e 01       	movw	r16, r28
    108e:	0f 5e       	subi	r16, 0xEF	; 239
    1090:	1f 4f       	sbci	r17, 0xFF	; 255
    1092:	ce 01       	movw	r24, r28
    1094:	05 96       	adiw	r24, 0x05	; 5
    1096:	b8 01       	movw	r22, r16
    1098:	0e 94 4f 0a 	call	0x149e	; 0x149e <__unpack_f>
    109c:	89 85       	ldd	r24, Y+9	; 0x09
    109e:	82 30       	cpi	r24, 0x02	; 2
    10a0:	40 f0       	brcs	.+16     	; 0x10b2 <__ltsf2+0x56>
    10a2:	89 89       	ldd	r24, Y+17	; 0x11
    10a4:	82 30       	cpi	r24, 0x02	; 2
    10a6:	28 f0       	brcs	.+10     	; 0x10b2 <__ltsf2+0x56>
    10a8:	c7 01       	movw	r24, r14
    10aa:	b8 01       	movw	r22, r16
    10ac:	0e 94 c7 0a 	call	0x158e	; 0x158e <__fpcmp_parts_f>
    10b0:	01 c0       	rjmp	.+2      	; 0x10b4 <__ltsf2+0x58>
    10b2:	81 e0       	ldi	r24, 0x01	; 1
    10b4:	68 96       	adiw	r28, 0x18	; 24
    10b6:	e6 e0       	ldi	r30, 0x06	; 6
    10b8:	0c 94 48 0b 	jmp	0x1690	; 0x1690 <__epilogue_restores__+0x18>

000010bc <__fixsfsi>:
    10bc:	ac e0       	ldi	r26, 0x0C	; 12
    10be:	b0 e0       	ldi	r27, 0x00	; 0
    10c0:	e4 e6       	ldi	r30, 0x64	; 100
    10c2:	f8 e0       	ldi	r31, 0x08	; 8
    10c4:	0c 94 30 0b 	jmp	0x1660	; 0x1660 <__prologue_saves__+0x20>
    10c8:	69 83       	std	Y+1, r22	; 0x01
    10ca:	7a 83       	std	Y+2, r23	; 0x02
    10cc:	8b 83       	std	Y+3, r24	; 0x03
    10ce:	9c 83       	std	Y+4, r25	; 0x04
    10d0:	ce 01       	movw	r24, r28
    10d2:	01 96       	adiw	r24, 0x01	; 1
    10d4:	be 01       	movw	r22, r28
    10d6:	6b 5f       	subi	r22, 0xFB	; 251
    10d8:	7f 4f       	sbci	r23, 0xFF	; 255
    10da:	0e 94 4f 0a 	call	0x149e	; 0x149e <__unpack_f>
    10de:	8d 81       	ldd	r24, Y+5	; 0x05
    10e0:	82 30       	cpi	r24, 0x02	; 2
    10e2:	61 f1       	breq	.+88     	; 0x113c <__fixsfsi+0x80>
    10e4:	82 30       	cpi	r24, 0x02	; 2
    10e6:	50 f1       	brcs	.+84     	; 0x113c <__fixsfsi+0x80>
    10e8:	84 30       	cpi	r24, 0x04	; 4
    10ea:	21 f4       	brne	.+8      	; 0x10f4 <__fixsfsi+0x38>
    10ec:	8e 81       	ldd	r24, Y+6	; 0x06
    10ee:	88 23       	and	r24, r24
    10f0:	51 f1       	breq	.+84     	; 0x1146 <__fixsfsi+0x8a>
    10f2:	2e c0       	rjmp	.+92     	; 0x1150 <__fixsfsi+0x94>
    10f4:	2f 81       	ldd	r18, Y+7	; 0x07
    10f6:	38 85       	ldd	r19, Y+8	; 0x08
    10f8:	37 fd       	sbrc	r19, 7
    10fa:	20 c0       	rjmp	.+64     	; 0x113c <__fixsfsi+0x80>
    10fc:	6e 81       	ldd	r22, Y+6	; 0x06
    10fe:	2f 31       	cpi	r18, 0x1F	; 31
    1100:	31 05       	cpc	r19, r1
    1102:	1c f0       	brlt	.+6      	; 0x110a <__fixsfsi+0x4e>
    1104:	66 23       	and	r22, r22
    1106:	f9 f0       	breq	.+62     	; 0x1146 <__fixsfsi+0x8a>
    1108:	23 c0       	rjmp	.+70     	; 0x1150 <__fixsfsi+0x94>
    110a:	8e e1       	ldi	r24, 0x1E	; 30
    110c:	90 e0       	ldi	r25, 0x00	; 0
    110e:	82 1b       	sub	r24, r18
    1110:	93 0b       	sbc	r25, r19
    1112:	29 85       	ldd	r18, Y+9	; 0x09
    1114:	3a 85       	ldd	r19, Y+10	; 0x0a
    1116:	4b 85       	ldd	r20, Y+11	; 0x0b
    1118:	5c 85       	ldd	r21, Y+12	; 0x0c
    111a:	04 c0       	rjmp	.+8      	; 0x1124 <__fixsfsi+0x68>
    111c:	56 95       	lsr	r21
    111e:	47 95       	ror	r20
    1120:	37 95       	ror	r19
    1122:	27 95       	ror	r18
    1124:	8a 95       	dec	r24
    1126:	d2 f7       	brpl	.-12     	; 0x111c <__fixsfsi+0x60>
    1128:	66 23       	and	r22, r22
    112a:	b1 f0       	breq	.+44     	; 0x1158 <__fixsfsi+0x9c>
    112c:	50 95       	com	r21
    112e:	40 95       	com	r20
    1130:	30 95       	com	r19
    1132:	21 95       	neg	r18
    1134:	3f 4f       	sbci	r19, 0xFF	; 255
    1136:	4f 4f       	sbci	r20, 0xFF	; 255
    1138:	5f 4f       	sbci	r21, 0xFF	; 255
    113a:	0e c0       	rjmp	.+28     	; 0x1158 <__fixsfsi+0x9c>
    113c:	20 e0       	ldi	r18, 0x00	; 0
    113e:	30 e0       	ldi	r19, 0x00	; 0
    1140:	40 e0       	ldi	r20, 0x00	; 0
    1142:	50 e0       	ldi	r21, 0x00	; 0
    1144:	09 c0       	rjmp	.+18     	; 0x1158 <__fixsfsi+0x9c>
    1146:	2f ef       	ldi	r18, 0xFF	; 255
    1148:	3f ef       	ldi	r19, 0xFF	; 255
    114a:	4f ef       	ldi	r20, 0xFF	; 255
    114c:	5f e7       	ldi	r21, 0x7F	; 127
    114e:	04 c0       	rjmp	.+8      	; 0x1158 <__fixsfsi+0x9c>
    1150:	20 e0       	ldi	r18, 0x00	; 0
    1152:	30 e0       	ldi	r19, 0x00	; 0
    1154:	40 e0       	ldi	r20, 0x00	; 0
    1156:	50 e8       	ldi	r21, 0x80	; 128
    1158:	b9 01       	movw	r22, r18
    115a:	ca 01       	movw	r24, r20
    115c:	2c 96       	adiw	r28, 0x0c	; 12
    115e:	e2 e0       	ldi	r30, 0x02	; 2
    1160:	0c 94 4c 0b 	jmp	0x1698	; 0x1698 <__epilogue_restores__+0x20>

00001164 <__floatunsisf>:
    1164:	a8 e0       	ldi	r26, 0x08	; 8
    1166:	b0 e0       	ldi	r27, 0x00	; 0
    1168:	e8 eb       	ldi	r30, 0xB8	; 184
    116a:	f8 e0       	ldi	r31, 0x08	; 8
    116c:	0c 94 28 0b 	jmp	0x1650	; 0x1650 <__prologue_saves__+0x10>
    1170:	7b 01       	movw	r14, r22
    1172:	8c 01       	movw	r16, r24
    1174:	61 15       	cp	r22, r1
    1176:	71 05       	cpc	r23, r1
    1178:	81 05       	cpc	r24, r1
    117a:	91 05       	cpc	r25, r1
    117c:	19 f4       	brne	.+6      	; 0x1184 <__floatunsisf+0x20>
    117e:	82 e0       	ldi	r24, 0x02	; 2
    1180:	89 83       	std	Y+1, r24	; 0x01
    1182:	60 c0       	rjmp	.+192    	; 0x1244 <__floatunsisf+0xe0>
    1184:	83 e0       	ldi	r24, 0x03	; 3
    1186:	89 83       	std	Y+1, r24	; 0x01
    1188:	8e e1       	ldi	r24, 0x1E	; 30
    118a:	c8 2e       	mov	r12, r24
    118c:	d1 2c       	mov	r13, r1
    118e:	dc 82       	std	Y+4, r13	; 0x04
    1190:	cb 82       	std	Y+3, r12	; 0x03
    1192:	ed 82       	std	Y+5, r14	; 0x05
    1194:	fe 82       	std	Y+6, r15	; 0x06
    1196:	0f 83       	std	Y+7, r16	; 0x07
    1198:	18 87       	std	Y+8, r17	; 0x08
    119a:	c8 01       	movw	r24, r16
    119c:	b7 01       	movw	r22, r14
    119e:	0e 94 2b 09 	call	0x1256	; 0x1256 <__clzsi2>
    11a2:	fc 01       	movw	r30, r24
    11a4:	31 97       	sbiw	r30, 0x01	; 1
    11a6:	f7 ff       	sbrs	r31, 7
    11a8:	3b c0       	rjmp	.+118    	; 0x1220 <__floatunsisf+0xbc>
    11aa:	22 27       	eor	r18, r18
    11ac:	33 27       	eor	r19, r19
    11ae:	2e 1b       	sub	r18, r30
    11b0:	3f 0b       	sbc	r19, r31
    11b2:	57 01       	movw	r10, r14
    11b4:	68 01       	movw	r12, r16
    11b6:	02 2e       	mov	r0, r18
    11b8:	04 c0       	rjmp	.+8      	; 0x11c2 <__floatunsisf+0x5e>
    11ba:	d6 94       	lsr	r13
    11bc:	c7 94       	ror	r12
    11be:	b7 94       	ror	r11
    11c0:	a7 94       	ror	r10
    11c2:	0a 94       	dec	r0
    11c4:	d2 f7       	brpl	.-12     	; 0x11ba <__floatunsisf+0x56>
    11c6:	40 e0       	ldi	r20, 0x00	; 0
    11c8:	50 e0       	ldi	r21, 0x00	; 0
    11ca:	60 e0       	ldi	r22, 0x00	; 0
    11cc:	70 e0       	ldi	r23, 0x00	; 0
    11ce:	81 e0       	ldi	r24, 0x01	; 1
    11d0:	90 e0       	ldi	r25, 0x00	; 0
    11d2:	a0 e0       	ldi	r26, 0x00	; 0
    11d4:	b0 e0       	ldi	r27, 0x00	; 0
    11d6:	04 c0       	rjmp	.+8      	; 0x11e0 <__floatunsisf+0x7c>
    11d8:	88 0f       	add	r24, r24
    11da:	99 1f       	adc	r25, r25
    11dc:	aa 1f       	adc	r26, r26
    11de:	bb 1f       	adc	r27, r27
    11e0:	2a 95       	dec	r18
    11e2:	d2 f7       	brpl	.-12     	; 0x11d8 <__floatunsisf+0x74>
    11e4:	01 97       	sbiw	r24, 0x01	; 1
    11e6:	a1 09       	sbc	r26, r1
    11e8:	b1 09       	sbc	r27, r1
    11ea:	8e 21       	and	r24, r14
    11ec:	9f 21       	and	r25, r15
    11ee:	a0 23       	and	r26, r16
    11f0:	b1 23       	and	r27, r17
    11f2:	00 97       	sbiw	r24, 0x00	; 0
    11f4:	a1 05       	cpc	r26, r1
    11f6:	b1 05       	cpc	r27, r1
    11f8:	21 f0       	breq	.+8      	; 0x1202 <__floatunsisf+0x9e>
    11fa:	41 e0       	ldi	r20, 0x01	; 1
    11fc:	50 e0       	ldi	r21, 0x00	; 0
    11fe:	60 e0       	ldi	r22, 0x00	; 0
    1200:	70 e0       	ldi	r23, 0x00	; 0
    1202:	4a 29       	or	r20, r10
    1204:	5b 29       	or	r21, r11
    1206:	6c 29       	or	r22, r12
    1208:	7d 29       	or	r23, r13
    120a:	4d 83       	std	Y+5, r20	; 0x05
    120c:	5e 83       	std	Y+6, r21	; 0x06
    120e:	6f 83       	std	Y+7, r22	; 0x07
    1210:	78 87       	std	Y+8, r23	; 0x08
    1212:	8e e1       	ldi	r24, 0x1E	; 30
    1214:	90 e0       	ldi	r25, 0x00	; 0
    1216:	8e 1b       	sub	r24, r30
    1218:	9f 0b       	sbc	r25, r31
    121a:	9c 83       	std	Y+4, r25	; 0x04
    121c:	8b 83       	std	Y+3, r24	; 0x03
    121e:	12 c0       	rjmp	.+36     	; 0x1244 <__floatunsisf+0xe0>
    1220:	30 97       	sbiw	r30, 0x00	; 0
    1222:	81 f0       	breq	.+32     	; 0x1244 <__floatunsisf+0xe0>
    1224:	0e 2e       	mov	r0, r30
    1226:	04 c0       	rjmp	.+8      	; 0x1230 <__floatunsisf+0xcc>
    1228:	ee 0c       	add	r14, r14
    122a:	ff 1c       	adc	r15, r15
    122c:	00 1f       	adc	r16, r16
    122e:	11 1f       	adc	r17, r17
    1230:	0a 94       	dec	r0
    1232:	d2 f7       	brpl	.-12     	; 0x1228 <__floatunsisf+0xc4>
    1234:	ed 82       	std	Y+5, r14	; 0x05
    1236:	fe 82       	std	Y+6, r15	; 0x06
    1238:	0f 83       	std	Y+7, r16	; 0x07
    123a:	18 87       	std	Y+8, r17	; 0x08
    123c:	ce 1a       	sub	r12, r30
    123e:	df 0a       	sbc	r13, r31
    1240:	dc 82       	std	Y+4, r13	; 0x04
    1242:	cb 82       	std	Y+3, r12	; 0x03
    1244:	1a 82       	std	Y+2, r1	; 0x02
    1246:	ce 01       	movw	r24, r28
    1248:	01 96       	adiw	r24, 0x01	; 1
    124a:	0e 94 7a 09 	call	0x12f4	; 0x12f4 <__pack_f>
    124e:	28 96       	adiw	r28, 0x08	; 8
    1250:	ea e0       	ldi	r30, 0x0A	; 10
    1252:	0c 94 44 0b 	jmp	0x1688	; 0x1688 <__epilogue_restores__+0x10>

00001256 <__clzsi2>:
    1256:	ef 92       	push	r14
    1258:	ff 92       	push	r15
    125a:	0f 93       	push	r16
    125c:	1f 93       	push	r17
    125e:	7b 01       	movw	r14, r22
    1260:	8c 01       	movw	r16, r24
    1262:	80 e0       	ldi	r24, 0x00	; 0
    1264:	e8 16       	cp	r14, r24
    1266:	80 e0       	ldi	r24, 0x00	; 0
    1268:	f8 06       	cpc	r15, r24
    126a:	81 e0       	ldi	r24, 0x01	; 1
    126c:	08 07       	cpc	r16, r24
    126e:	80 e0       	ldi	r24, 0x00	; 0
    1270:	18 07       	cpc	r17, r24
    1272:	88 f4       	brcc	.+34     	; 0x1296 <__clzsi2+0x40>
    1274:	8f ef       	ldi	r24, 0xFF	; 255
    1276:	e8 16       	cp	r14, r24
    1278:	f1 04       	cpc	r15, r1
    127a:	01 05       	cpc	r16, r1
    127c:	11 05       	cpc	r17, r1
    127e:	31 f0       	breq	.+12     	; 0x128c <__clzsi2+0x36>
    1280:	28 f0       	brcs	.+10     	; 0x128c <__clzsi2+0x36>
    1282:	88 e0       	ldi	r24, 0x08	; 8
    1284:	90 e0       	ldi	r25, 0x00	; 0
    1286:	a0 e0       	ldi	r26, 0x00	; 0
    1288:	b0 e0       	ldi	r27, 0x00	; 0
    128a:	17 c0       	rjmp	.+46     	; 0x12ba <__clzsi2+0x64>
    128c:	80 e0       	ldi	r24, 0x00	; 0
    128e:	90 e0       	ldi	r25, 0x00	; 0
    1290:	a0 e0       	ldi	r26, 0x00	; 0
    1292:	b0 e0       	ldi	r27, 0x00	; 0
    1294:	12 c0       	rjmp	.+36     	; 0x12ba <__clzsi2+0x64>
    1296:	80 e0       	ldi	r24, 0x00	; 0
    1298:	e8 16       	cp	r14, r24
    129a:	80 e0       	ldi	r24, 0x00	; 0
    129c:	f8 06       	cpc	r15, r24
    129e:	80 e0       	ldi	r24, 0x00	; 0
    12a0:	08 07       	cpc	r16, r24
    12a2:	81 e0       	ldi	r24, 0x01	; 1
    12a4:	18 07       	cpc	r17, r24
    12a6:	28 f0       	brcs	.+10     	; 0x12b2 <__clzsi2+0x5c>
    12a8:	88 e1       	ldi	r24, 0x18	; 24
    12aa:	90 e0       	ldi	r25, 0x00	; 0
    12ac:	a0 e0       	ldi	r26, 0x00	; 0
    12ae:	b0 e0       	ldi	r27, 0x00	; 0
    12b0:	04 c0       	rjmp	.+8      	; 0x12ba <__clzsi2+0x64>
    12b2:	80 e1       	ldi	r24, 0x10	; 16
    12b4:	90 e0       	ldi	r25, 0x00	; 0
    12b6:	a0 e0       	ldi	r26, 0x00	; 0
    12b8:	b0 e0       	ldi	r27, 0x00	; 0
    12ba:	20 e2       	ldi	r18, 0x20	; 32
    12bc:	30 e0       	ldi	r19, 0x00	; 0
    12be:	40 e0       	ldi	r20, 0x00	; 0
    12c0:	50 e0       	ldi	r21, 0x00	; 0
    12c2:	28 1b       	sub	r18, r24
    12c4:	39 0b       	sbc	r19, r25
    12c6:	4a 0b       	sbc	r20, r26
    12c8:	5b 0b       	sbc	r21, r27
    12ca:	04 c0       	rjmp	.+8      	; 0x12d4 <__clzsi2+0x7e>
    12cc:	16 95       	lsr	r17
    12ce:	07 95       	ror	r16
    12d0:	f7 94       	ror	r15
    12d2:	e7 94       	ror	r14
    12d4:	8a 95       	dec	r24
    12d6:	d2 f7       	brpl	.-12     	; 0x12cc <__clzsi2+0x76>
    12d8:	f7 01       	movw	r30, r14
    12da:	e8 5f       	subi	r30, 0xF8	; 248
    12dc:	fe 4f       	sbci	r31, 0xFE	; 254
    12de:	80 81       	ld	r24, Z
    12e0:	28 1b       	sub	r18, r24
    12e2:	31 09       	sbc	r19, r1
    12e4:	41 09       	sbc	r20, r1
    12e6:	51 09       	sbc	r21, r1
    12e8:	c9 01       	movw	r24, r18
    12ea:	1f 91       	pop	r17
    12ec:	0f 91       	pop	r16
    12ee:	ff 90       	pop	r15
    12f0:	ef 90       	pop	r14
    12f2:	08 95       	ret

000012f4 <__pack_f>:
    12f4:	df 92       	push	r13
    12f6:	ef 92       	push	r14
    12f8:	ff 92       	push	r15
    12fa:	0f 93       	push	r16
    12fc:	1f 93       	push	r17
    12fe:	fc 01       	movw	r30, r24
    1300:	e4 80       	ldd	r14, Z+4	; 0x04
    1302:	f5 80       	ldd	r15, Z+5	; 0x05
    1304:	06 81       	ldd	r16, Z+6	; 0x06
    1306:	17 81       	ldd	r17, Z+7	; 0x07
    1308:	d1 80       	ldd	r13, Z+1	; 0x01
    130a:	80 81       	ld	r24, Z
    130c:	82 30       	cpi	r24, 0x02	; 2
    130e:	48 f4       	brcc	.+18     	; 0x1322 <__pack_f+0x2e>
    1310:	80 e0       	ldi	r24, 0x00	; 0
    1312:	90 e0       	ldi	r25, 0x00	; 0
    1314:	a0 e1       	ldi	r26, 0x10	; 16
    1316:	b0 e0       	ldi	r27, 0x00	; 0
    1318:	e8 2a       	or	r14, r24
    131a:	f9 2a       	or	r15, r25
    131c:	0a 2b       	or	r16, r26
    131e:	1b 2b       	or	r17, r27
    1320:	a5 c0       	rjmp	.+330    	; 0x146c <__pack_f+0x178>
    1322:	84 30       	cpi	r24, 0x04	; 4
    1324:	09 f4       	brne	.+2      	; 0x1328 <__pack_f+0x34>
    1326:	9f c0       	rjmp	.+318    	; 0x1466 <__pack_f+0x172>
    1328:	82 30       	cpi	r24, 0x02	; 2
    132a:	21 f4       	brne	.+8      	; 0x1334 <__pack_f+0x40>
    132c:	ee 24       	eor	r14, r14
    132e:	ff 24       	eor	r15, r15
    1330:	87 01       	movw	r16, r14
    1332:	05 c0       	rjmp	.+10     	; 0x133e <__pack_f+0x4a>
    1334:	e1 14       	cp	r14, r1
    1336:	f1 04       	cpc	r15, r1
    1338:	01 05       	cpc	r16, r1
    133a:	11 05       	cpc	r17, r1
    133c:	19 f4       	brne	.+6      	; 0x1344 <__pack_f+0x50>
    133e:	e0 e0       	ldi	r30, 0x00	; 0
    1340:	f0 e0       	ldi	r31, 0x00	; 0
    1342:	96 c0       	rjmp	.+300    	; 0x1470 <__pack_f+0x17c>
    1344:	62 81       	ldd	r22, Z+2	; 0x02
    1346:	73 81       	ldd	r23, Z+3	; 0x03
    1348:	9f ef       	ldi	r25, 0xFF	; 255
    134a:	62 38       	cpi	r22, 0x82	; 130
    134c:	79 07       	cpc	r23, r25
    134e:	0c f0       	brlt	.+2      	; 0x1352 <__pack_f+0x5e>
    1350:	5b c0       	rjmp	.+182    	; 0x1408 <__pack_f+0x114>
    1352:	22 e8       	ldi	r18, 0x82	; 130
    1354:	3f ef       	ldi	r19, 0xFF	; 255
    1356:	26 1b       	sub	r18, r22
    1358:	37 0b       	sbc	r19, r23
    135a:	2a 31       	cpi	r18, 0x1A	; 26
    135c:	31 05       	cpc	r19, r1
    135e:	2c f0       	brlt	.+10     	; 0x136a <__pack_f+0x76>
    1360:	20 e0       	ldi	r18, 0x00	; 0
    1362:	30 e0       	ldi	r19, 0x00	; 0
    1364:	40 e0       	ldi	r20, 0x00	; 0
    1366:	50 e0       	ldi	r21, 0x00	; 0
    1368:	2a c0       	rjmp	.+84     	; 0x13be <__pack_f+0xca>
    136a:	b8 01       	movw	r22, r16
    136c:	a7 01       	movw	r20, r14
    136e:	02 2e       	mov	r0, r18
    1370:	04 c0       	rjmp	.+8      	; 0x137a <__pack_f+0x86>
    1372:	76 95       	lsr	r23
    1374:	67 95       	ror	r22
    1376:	57 95       	ror	r21
    1378:	47 95       	ror	r20
    137a:	0a 94       	dec	r0
    137c:	d2 f7       	brpl	.-12     	; 0x1372 <__pack_f+0x7e>
    137e:	81 e0       	ldi	r24, 0x01	; 1
    1380:	90 e0       	ldi	r25, 0x00	; 0
    1382:	a0 e0       	ldi	r26, 0x00	; 0
    1384:	b0 e0       	ldi	r27, 0x00	; 0
    1386:	04 c0       	rjmp	.+8      	; 0x1390 <__pack_f+0x9c>
    1388:	88 0f       	add	r24, r24
    138a:	99 1f       	adc	r25, r25
    138c:	aa 1f       	adc	r26, r26
    138e:	bb 1f       	adc	r27, r27
    1390:	2a 95       	dec	r18
    1392:	d2 f7       	brpl	.-12     	; 0x1388 <__pack_f+0x94>
    1394:	01 97       	sbiw	r24, 0x01	; 1
    1396:	a1 09       	sbc	r26, r1
    1398:	b1 09       	sbc	r27, r1
    139a:	8e 21       	and	r24, r14
    139c:	9f 21       	and	r25, r15
    139e:	a0 23       	and	r26, r16
    13a0:	b1 23       	and	r27, r17
    13a2:	00 97       	sbiw	r24, 0x00	; 0
    13a4:	a1 05       	cpc	r26, r1
    13a6:	b1 05       	cpc	r27, r1
    13a8:	21 f0       	breq	.+8      	; 0x13b2 <__pack_f+0xbe>
    13aa:	81 e0       	ldi	r24, 0x01	; 1
    13ac:	90 e0       	ldi	r25, 0x00	; 0
    13ae:	a0 e0       	ldi	r26, 0x00	; 0
    13b0:	b0 e0       	ldi	r27, 0x00	; 0
    13b2:	9a 01       	movw	r18, r20
    13b4:	ab 01       	movw	r20, r22
    13b6:	28 2b       	or	r18, r24
    13b8:	39 2b       	or	r19, r25
    13ba:	4a 2b       	or	r20, r26
    13bc:	5b 2b       	or	r21, r27
    13be:	da 01       	movw	r26, r20
    13c0:	c9 01       	movw	r24, r18
    13c2:	8f 77       	andi	r24, 0x7F	; 127
    13c4:	90 70       	andi	r25, 0x00	; 0
    13c6:	a0 70       	andi	r26, 0x00	; 0
    13c8:	b0 70       	andi	r27, 0x00	; 0
    13ca:	80 34       	cpi	r24, 0x40	; 64
    13cc:	91 05       	cpc	r25, r1
    13ce:	a1 05       	cpc	r26, r1
    13d0:	b1 05       	cpc	r27, r1
    13d2:	39 f4       	brne	.+14     	; 0x13e2 <__pack_f+0xee>
    13d4:	27 ff       	sbrs	r18, 7
    13d6:	09 c0       	rjmp	.+18     	; 0x13ea <__pack_f+0xf6>
    13d8:	20 5c       	subi	r18, 0xC0	; 192
    13da:	3f 4f       	sbci	r19, 0xFF	; 255
    13dc:	4f 4f       	sbci	r20, 0xFF	; 255
    13de:	5f 4f       	sbci	r21, 0xFF	; 255
    13e0:	04 c0       	rjmp	.+8      	; 0x13ea <__pack_f+0xf6>
    13e2:	21 5c       	subi	r18, 0xC1	; 193
    13e4:	3f 4f       	sbci	r19, 0xFF	; 255
    13e6:	4f 4f       	sbci	r20, 0xFF	; 255
    13e8:	5f 4f       	sbci	r21, 0xFF	; 255
    13ea:	e0 e0       	ldi	r30, 0x00	; 0
    13ec:	f0 e0       	ldi	r31, 0x00	; 0
    13ee:	20 30       	cpi	r18, 0x00	; 0
    13f0:	a0 e0       	ldi	r26, 0x00	; 0
    13f2:	3a 07       	cpc	r19, r26
    13f4:	a0 e0       	ldi	r26, 0x00	; 0
    13f6:	4a 07       	cpc	r20, r26
    13f8:	a0 e4       	ldi	r26, 0x40	; 64
    13fa:	5a 07       	cpc	r21, r26
    13fc:	10 f0       	brcs	.+4      	; 0x1402 <__pack_f+0x10e>
    13fe:	e1 e0       	ldi	r30, 0x01	; 1
    1400:	f0 e0       	ldi	r31, 0x00	; 0
    1402:	79 01       	movw	r14, r18
    1404:	8a 01       	movw	r16, r20
    1406:	27 c0       	rjmp	.+78     	; 0x1456 <__pack_f+0x162>
    1408:	60 38       	cpi	r22, 0x80	; 128
    140a:	71 05       	cpc	r23, r1
    140c:	64 f5       	brge	.+88     	; 0x1466 <__pack_f+0x172>
    140e:	fb 01       	movw	r30, r22
    1410:	e1 58       	subi	r30, 0x81	; 129
    1412:	ff 4f       	sbci	r31, 0xFF	; 255
    1414:	d8 01       	movw	r26, r16
    1416:	c7 01       	movw	r24, r14
    1418:	8f 77       	andi	r24, 0x7F	; 127
    141a:	90 70       	andi	r25, 0x00	; 0
    141c:	a0 70       	andi	r26, 0x00	; 0
    141e:	b0 70       	andi	r27, 0x00	; 0
    1420:	80 34       	cpi	r24, 0x40	; 64
    1422:	91 05       	cpc	r25, r1
    1424:	a1 05       	cpc	r26, r1
    1426:	b1 05       	cpc	r27, r1
    1428:	39 f4       	brne	.+14     	; 0x1438 <__pack_f+0x144>
    142a:	e7 fe       	sbrs	r14, 7
    142c:	0d c0       	rjmp	.+26     	; 0x1448 <__pack_f+0x154>
    142e:	80 e4       	ldi	r24, 0x40	; 64
    1430:	90 e0       	ldi	r25, 0x00	; 0
    1432:	a0 e0       	ldi	r26, 0x00	; 0
    1434:	b0 e0       	ldi	r27, 0x00	; 0
    1436:	04 c0       	rjmp	.+8      	; 0x1440 <__pack_f+0x14c>
    1438:	8f e3       	ldi	r24, 0x3F	; 63
    143a:	90 e0       	ldi	r25, 0x00	; 0
    143c:	a0 e0       	ldi	r26, 0x00	; 0
    143e:	b0 e0       	ldi	r27, 0x00	; 0
    1440:	e8 0e       	add	r14, r24
    1442:	f9 1e       	adc	r15, r25
    1444:	0a 1f       	adc	r16, r26
    1446:	1b 1f       	adc	r17, r27
    1448:	17 ff       	sbrs	r17, 7
    144a:	05 c0       	rjmp	.+10     	; 0x1456 <__pack_f+0x162>
    144c:	16 95       	lsr	r17
    144e:	07 95       	ror	r16
    1450:	f7 94       	ror	r15
    1452:	e7 94       	ror	r14
    1454:	31 96       	adiw	r30, 0x01	; 1
    1456:	87 e0       	ldi	r24, 0x07	; 7
    1458:	16 95       	lsr	r17
    145a:	07 95       	ror	r16
    145c:	f7 94       	ror	r15
    145e:	e7 94       	ror	r14
    1460:	8a 95       	dec	r24
    1462:	d1 f7       	brne	.-12     	; 0x1458 <__pack_f+0x164>
    1464:	05 c0       	rjmp	.+10     	; 0x1470 <__pack_f+0x17c>
    1466:	ee 24       	eor	r14, r14
    1468:	ff 24       	eor	r15, r15
    146a:	87 01       	movw	r16, r14
    146c:	ef ef       	ldi	r30, 0xFF	; 255
    146e:	f0 e0       	ldi	r31, 0x00	; 0
    1470:	6e 2f       	mov	r22, r30
    1472:	67 95       	ror	r22
    1474:	66 27       	eor	r22, r22
    1476:	67 95       	ror	r22
    1478:	90 2f       	mov	r25, r16
    147a:	9f 77       	andi	r25, 0x7F	; 127
    147c:	d7 94       	ror	r13
    147e:	dd 24       	eor	r13, r13
    1480:	d7 94       	ror	r13
    1482:	8e 2f       	mov	r24, r30
    1484:	86 95       	lsr	r24
    1486:	49 2f       	mov	r20, r25
    1488:	46 2b       	or	r20, r22
    148a:	58 2f       	mov	r21, r24
    148c:	5d 29       	or	r21, r13
    148e:	b7 01       	movw	r22, r14
    1490:	ca 01       	movw	r24, r20
    1492:	1f 91       	pop	r17
    1494:	0f 91       	pop	r16
    1496:	ff 90       	pop	r15
    1498:	ef 90       	pop	r14
    149a:	df 90       	pop	r13
    149c:	08 95       	ret

0000149e <__unpack_f>:
    149e:	fc 01       	movw	r30, r24
    14a0:	db 01       	movw	r26, r22
    14a2:	40 81       	ld	r20, Z
    14a4:	51 81       	ldd	r21, Z+1	; 0x01
    14a6:	22 81       	ldd	r18, Z+2	; 0x02
    14a8:	62 2f       	mov	r22, r18
    14aa:	6f 77       	andi	r22, 0x7F	; 127
    14ac:	70 e0       	ldi	r23, 0x00	; 0
    14ae:	22 1f       	adc	r18, r18
    14b0:	22 27       	eor	r18, r18
    14b2:	22 1f       	adc	r18, r18
    14b4:	93 81       	ldd	r25, Z+3	; 0x03
    14b6:	89 2f       	mov	r24, r25
    14b8:	88 0f       	add	r24, r24
    14ba:	82 2b       	or	r24, r18
    14bc:	28 2f       	mov	r18, r24
    14be:	30 e0       	ldi	r19, 0x00	; 0
    14c0:	99 1f       	adc	r25, r25
    14c2:	99 27       	eor	r25, r25
    14c4:	99 1f       	adc	r25, r25
    14c6:	11 96       	adiw	r26, 0x01	; 1
    14c8:	9c 93       	st	X, r25
    14ca:	11 97       	sbiw	r26, 0x01	; 1
    14cc:	21 15       	cp	r18, r1
    14ce:	31 05       	cpc	r19, r1
    14d0:	a9 f5       	brne	.+106    	; 0x153c <__unpack_f+0x9e>
    14d2:	41 15       	cp	r20, r1
    14d4:	51 05       	cpc	r21, r1
    14d6:	61 05       	cpc	r22, r1
    14d8:	71 05       	cpc	r23, r1
    14da:	11 f4       	brne	.+4      	; 0x14e0 <__unpack_f+0x42>
    14dc:	82 e0       	ldi	r24, 0x02	; 2
    14de:	37 c0       	rjmp	.+110    	; 0x154e <__unpack_f+0xb0>
    14e0:	82 e8       	ldi	r24, 0x82	; 130
    14e2:	9f ef       	ldi	r25, 0xFF	; 255
    14e4:	13 96       	adiw	r26, 0x03	; 3
    14e6:	9c 93       	st	X, r25
    14e8:	8e 93       	st	-X, r24
    14ea:	12 97       	sbiw	r26, 0x02	; 2
    14ec:	9a 01       	movw	r18, r20
    14ee:	ab 01       	movw	r20, r22
    14f0:	67 e0       	ldi	r22, 0x07	; 7
    14f2:	22 0f       	add	r18, r18
    14f4:	33 1f       	adc	r19, r19
    14f6:	44 1f       	adc	r20, r20
    14f8:	55 1f       	adc	r21, r21
    14fa:	6a 95       	dec	r22
    14fc:	d1 f7       	brne	.-12     	; 0x14f2 <__unpack_f+0x54>
    14fe:	83 e0       	ldi	r24, 0x03	; 3
    1500:	8c 93       	st	X, r24
    1502:	0d c0       	rjmp	.+26     	; 0x151e <__unpack_f+0x80>
    1504:	22 0f       	add	r18, r18
    1506:	33 1f       	adc	r19, r19
    1508:	44 1f       	adc	r20, r20
    150a:	55 1f       	adc	r21, r21
    150c:	12 96       	adiw	r26, 0x02	; 2
    150e:	8d 91       	ld	r24, X+
    1510:	9c 91       	ld	r25, X
    1512:	13 97       	sbiw	r26, 0x03	; 3
    1514:	01 97       	sbiw	r24, 0x01	; 1
    1516:	13 96       	adiw	r26, 0x03	; 3
    1518:	9c 93       	st	X, r25
    151a:	8e 93       	st	-X, r24
    151c:	12 97       	sbiw	r26, 0x02	; 2
    151e:	20 30       	cpi	r18, 0x00	; 0
    1520:	80 e0       	ldi	r24, 0x00	; 0
    1522:	38 07       	cpc	r19, r24
    1524:	80 e0       	ldi	r24, 0x00	; 0
    1526:	48 07       	cpc	r20, r24
    1528:	80 e4       	ldi	r24, 0x40	; 64
    152a:	58 07       	cpc	r21, r24
    152c:	58 f3       	brcs	.-42     	; 0x1504 <__unpack_f+0x66>
    152e:	14 96       	adiw	r26, 0x04	; 4
    1530:	2d 93       	st	X+, r18
    1532:	3d 93       	st	X+, r19
    1534:	4d 93       	st	X+, r20
    1536:	5c 93       	st	X, r21
    1538:	17 97       	sbiw	r26, 0x07	; 7
    153a:	08 95       	ret
    153c:	2f 3f       	cpi	r18, 0xFF	; 255
    153e:	31 05       	cpc	r19, r1
    1540:	79 f4       	brne	.+30     	; 0x1560 <__unpack_f+0xc2>
    1542:	41 15       	cp	r20, r1
    1544:	51 05       	cpc	r21, r1
    1546:	61 05       	cpc	r22, r1
    1548:	71 05       	cpc	r23, r1
    154a:	19 f4       	brne	.+6      	; 0x1552 <__unpack_f+0xb4>
    154c:	84 e0       	ldi	r24, 0x04	; 4
    154e:	8c 93       	st	X, r24
    1550:	08 95       	ret
    1552:	64 ff       	sbrs	r22, 4
    1554:	03 c0       	rjmp	.+6      	; 0x155c <__unpack_f+0xbe>
    1556:	81 e0       	ldi	r24, 0x01	; 1
    1558:	8c 93       	st	X, r24
    155a:	12 c0       	rjmp	.+36     	; 0x1580 <__unpack_f+0xe2>
    155c:	1c 92       	st	X, r1
    155e:	10 c0       	rjmp	.+32     	; 0x1580 <__unpack_f+0xe2>
    1560:	2f 57       	subi	r18, 0x7F	; 127
    1562:	30 40       	sbci	r19, 0x00	; 0
    1564:	13 96       	adiw	r26, 0x03	; 3
    1566:	3c 93       	st	X, r19
    1568:	2e 93       	st	-X, r18
    156a:	12 97       	sbiw	r26, 0x02	; 2
    156c:	83 e0       	ldi	r24, 0x03	; 3
    156e:	8c 93       	st	X, r24
    1570:	87 e0       	ldi	r24, 0x07	; 7
    1572:	44 0f       	add	r20, r20
    1574:	55 1f       	adc	r21, r21
    1576:	66 1f       	adc	r22, r22
    1578:	77 1f       	adc	r23, r23
    157a:	8a 95       	dec	r24
    157c:	d1 f7       	brne	.-12     	; 0x1572 <__unpack_f+0xd4>
    157e:	70 64       	ori	r23, 0x40	; 64
    1580:	14 96       	adiw	r26, 0x04	; 4
    1582:	4d 93       	st	X+, r20
    1584:	5d 93       	st	X+, r21
    1586:	6d 93       	st	X+, r22
    1588:	7c 93       	st	X, r23
    158a:	17 97       	sbiw	r26, 0x07	; 7
    158c:	08 95       	ret

0000158e <__fpcmp_parts_f>:
    158e:	1f 93       	push	r17
    1590:	dc 01       	movw	r26, r24
    1592:	fb 01       	movw	r30, r22
    1594:	9c 91       	ld	r25, X
    1596:	92 30       	cpi	r25, 0x02	; 2
    1598:	08 f4       	brcc	.+2      	; 0x159c <__fpcmp_parts_f+0xe>
    159a:	47 c0       	rjmp	.+142    	; 0x162a <__fpcmp_parts_f+0x9c>
    159c:	80 81       	ld	r24, Z
    159e:	82 30       	cpi	r24, 0x02	; 2
    15a0:	08 f4       	brcc	.+2      	; 0x15a4 <__fpcmp_parts_f+0x16>
    15a2:	43 c0       	rjmp	.+134    	; 0x162a <__fpcmp_parts_f+0x9c>
    15a4:	94 30       	cpi	r25, 0x04	; 4
    15a6:	51 f4       	brne	.+20     	; 0x15bc <__fpcmp_parts_f+0x2e>
    15a8:	11 96       	adiw	r26, 0x01	; 1
    15aa:	1c 91       	ld	r17, X
    15ac:	84 30       	cpi	r24, 0x04	; 4
    15ae:	99 f5       	brne	.+102    	; 0x1616 <__fpcmp_parts_f+0x88>
    15b0:	81 81       	ldd	r24, Z+1	; 0x01
    15b2:	68 2f       	mov	r22, r24
    15b4:	70 e0       	ldi	r23, 0x00	; 0
    15b6:	61 1b       	sub	r22, r17
    15b8:	71 09       	sbc	r23, r1
    15ba:	3f c0       	rjmp	.+126    	; 0x163a <__fpcmp_parts_f+0xac>
    15bc:	84 30       	cpi	r24, 0x04	; 4
    15be:	21 f0       	breq	.+8      	; 0x15c8 <__fpcmp_parts_f+0x3a>
    15c0:	92 30       	cpi	r25, 0x02	; 2
    15c2:	31 f4       	brne	.+12     	; 0x15d0 <__fpcmp_parts_f+0x42>
    15c4:	82 30       	cpi	r24, 0x02	; 2
    15c6:	b9 f1       	breq	.+110    	; 0x1636 <__fpcmp_parts_f+0xa8>
    15c8:	81 81       	ldd	r24, Z+1	; 0x01
    15ca:	88 23       	and	r24, r24
    15cc:	89 f1       	breq	.+98     	; 0x1630 <__fpcmp_parts_f+0xa2>
    15ce:	2d c0       	rjmp	.+90     	; 0x162a <__fpcmp_parts_f+0x9c>
    15d0:	11 96       	adiw	r26, 0x01	; 1
    15d2:	1c 91       	ld	r17, X
    15d4:	11 97       	sbiw	r26, 0x01	; 1
    15d6:	82 30       	cpi	r24, 0x02	; 2
    15d8:	f1 f0       	breq	.+60     	; 0x1616 <__fpcmp_parts_f+0x88>
    15da:	81 81       	ldd	r24, Z+1	; 0x01
    15dc:	18 17       	cp	r17, r24
    15de:	d9 f4       	brne	.+54     	; 0x1616 <__fpcmp_parts_f+0x88>
    15e0:	12 96       	adiw	r26, 0x02	; 2
    15e2:	2d 91       	ld	r18, X+
    15e4:	3c 91       	ld	r19, X
    15e6:	13 97       	sbiw	r26, 0x03	; 3
    15e8:	82 81       	ldd	r24, Z+2	; 0x02
    15ea:	93 81       	ldd	r25, Z+3	; 0x03
    15ec:	82 17       	cp	r24, r18
    15ee:	93 07       	cpc	r25, r19
    15f0:	94 f0       	brlt	.+36     	; 0x1616 <__fpcmp_parts_f+0x88>
    15f2:	28 17       	cp	r18, r24
    15f4:	39 07       	cpc	r19, r25
    15f6:	bc f0       	brlt	.+46     	; 0x1626 <__fpcmp_parts_f+0x98>
    15f8:	14 96       	adiw	r26, 0x04	; 4
    15fa:	8d 91       	ld	r24, X+
    15fc:	9d 91       	ld	r25, X+
    15fe:	0d 90       	ld	r0, X+
    1600:	bc 91       	ld	r27, X
    1602:	a0 2d       	mov	r26, r0
    1604:	24 81       	ldd	r18, Z+4	; 0x04
    1606:	35 81       	ldd	r19, Z+5	; 0x05
    1608:	46 81       	ldd	r20, Z+6	; 0x06
    160a:	57 81       	ldd	r21, Z+7	; 0x07
    160c:	28 17       	cp	r18, r24
    160e:	39 07       	cpc	r19, r25
    1610:	4a 07       	cpc	r20, r26
    1612:	5b 07       	cpc	r21, r27
    1614:	18 f4       	brcc	.+6      	; 0x161c <__fpcmp_parts_f+0x8e>
    1616:	11 23       	and	r17, r17
    1618:	41 f0       	breq	.+16     	; 0x162a <__fpcmp_parts_f+0x9c>
    161a:	0a c0       	rjmp	.+20     	; 0x1630 <__fpcmp_parts_f+0xa2>
    161c:	82 17       	cp	r24, r18
    161e:	93 07       	cpc	r25, r19
    1620:	a4 07       	cpc	r26, r20
    1622:	b5 07       	cpc	r27, r21
    1624:	40 f4       	brcc	.+16     	; 0x1636 <__fpcmp_parts_f+0xa8>
    1626:	11 23       	and	r17, r17
    1628:	19 f0       	breq	.+6      	; 0x1630 <__fpcmp_parts_f+0xa2>
    162a:	61 e0       	ldi	r22, 0x01	; 1
    162c:	70 e0       	ldi	r23, 0x00	; 0
    162e:	05 c0       	rjmp	.+10     	; 0x163a <__fpcmp_parts_f+0xac>
    1630:	6f ef       	ldi	r22, 0xFF	; 255
    1632:	7f ef       	ldi	r23, 0xFF	; 255
    1634:	02 c0       	rjmp	.+4      	; 0x163a <__fpcmp_parts_f+0xac>
    1636:	60 e0       	ldi	r22, 0x00	; 0
    1638:	70 e0       	ldi	r23, 0x00	; 0
    163a:	cb 01       	movw	r24, r22
    163c:	1f 91       	pop	r17
    163e:	08 95       	ret

00001640 <__prologue_saves__>:
    1640:	2f 92       	push	r2
    1642:	3f 92       	push	r3
    1644:	4f 92       	push	r4
    1646:	5f 92       	push	r5
    1648:	6f 92       	push	r6
    164a:	7f 92       	push	r7
    164c:	8f 92       	push	r8
    164e:	9f 92       	push	r9
    1650:	af 92       	push	r10
    1652:	bf 92       	push	r11
    1654:	cf 92       	push	r12
    1656:	df 92       	push	r13
    1658:	ef 92       	push	r14
    165a:	ff 92       	push	r15
    165c:	0f 93       	push	r16
    165e:	1f 93       	push	r17
    1660:	cf 93       	push	r28
    1662:	df 93       	push	r29
    1664:	cd b7       	in	r28, 0x3d	; 61
    1666:	de b7       	in	r29, 0x3e	; 62
    1668:	ca 1b       	sub	r28, r26
    166a:	db 0b       	sbc	r29, r27
    166c:	0f b6       	in	r0, 0x3f	; 63
    166e:	f8 94       	cli
    1670:	de bf       	out	0x3e, r29	; 62
    1672:	0f be       	out	0x3f, r0	; 63
    1674:	cd bf       	out	0x3d, r28	; 61
    1676:	09 94       	ijmp

00001678 <__epilogue_restores__>:
    1678:	2a 88       	ldd	r2, Y+18	; 0x12
    167a:	39 88       	ldd	r3, Y+17	; 0x11
    167c:	48 88       	ldd	r4, Y+16	; 0x10
    167e:	5f 84       	ldd	r5, Y+15	; 0x0f
    1680:	6e 84       	ldd	r6, Y+14	; 0x0e
    1682:	7d 84       	ldd	r7, Y+13	; 0x0d
    1684:	8c 84       	ldd	r8, Y+12	; 0x0c
    1686:	9b 84       	ldd	r9, Y+11	; 0x0b
    1688:	aa 84       	ldd	r10, Y+10	; 0x0a
    168a:	b9 84       	ldd	r11, Y+9	; 0x09
    168c:	c8 84       	ldd	r12, Y+8	; 0x08
    168e:	df 80       	ldd	r13, Y+7	; 0x07
    1690:	ee 80       	ldd	r14, Y+6	; 0x06
    1692:	fd 80       	ldd	r15, Y+5	; 0x05
    1694:	0c 81       	ldd	r16, Y+4	; 0x04
    1696:	1b 81       	ldd	r17, Y+3	; 0x03
    1698:	aa 81       	ldd	r26, Y+2	; 0x02
    169a:	b9 81       	ldd	r27, Y+1	; 0x01
    169c:	ce 0f       	add	r28, r30
    169e:	d1 1d       	adc	r29, r1
    16a0:	0f b6       	in	r0, 0x3f	; 63
    16a2:	f8 94       	cli
    16a4:	de bf       	out	0x3e, r29	; 62
    16a6:	0f be       	out	0x3f, r0	; 63
    16a8:	cd bf       	out	0x3d, r28	; 61
    16aa:	ed 01       	movw	r28, r26
    16ac:	08 95       	ret

000016ae <_exit>:
    16ae:	f8 94       	cli

000016b0 <__stop_program>:
    16b0:	ff cf       	rjmp	.-2      	; 0x16b0 <__stop_program>
