
bin/Release/BOB_motor.elf:     file format elf32-avr

Sections:
Idx Name          Size      VMA       LMA       File off  Algn
  0 .data         00000006  00800100  00000a9e  00000b32  2**0
                  CONTENTS, ALLOC, LOAD, DATA
  1 .text         00000a9e  00000000  00000000  00000094  2**1
                  CONTENTS, ALLOC, LOAD, READONLY, CODE
  2 .bss          000002ec  00800106  00800106  00000b38  2**0
                  ALLOC
  3 .stab         000006b4  00000000  00000000  00000b38  2**2
                  CONTENTS, READONLY, DEBUGGING
  4 .stabstr      00000054  00000000  00000000  000011ec  2**0
                  CONTENTS, READONLY, DEBUGGING

Disassembly of section .text:

00000000 <__vectors>:
   0:	0c 94 34 00 	jmp	0x68	; 0x68 <__ctors_end>
   4:	0c 94 51 00 	jmp	0xa2	; 0xa2 <__bad_interrupt>
   8:	0c 94 51 00 	jmp	0xa2	; 0xa2 <__bad_interrupt>
   c:	0c 94 51 00 	jmp	0xa2	; 0xa2 <__bad_interrupt>
  10:	0c 94 51 00 	jmp	0xa2	; 0xa2 <__bad_interrupt>
  14:	0c 94 51 00 	jmp	0xa2	; 0xa2 <__bad_interrupt>
  18:	0c 94 51 00 	jmp	0xa2	; 0xa2 <__bad_interrupt>
  1c:	0c 94 51 00 	jmp	0xa2	; 0xa2 <__bad_interrupt>
  20:	0c 94 51 00 	jmp	0xa2	; 0xa2 <__bad_interrupt>
  24:	0c 94 51 00 	jmp	0xa2	; 0xa2 <__bad_interrupt>
  28:	0c 94 51 00 	jmp	0xa2	; 0xa2 <__bad_interrupt>
  2c:	0c 94 51 00 	jmp	0xa2	; 0xa2 <__bad_interrupt>
  30:	0c 94 51 00 	jmp	0xa2	; 0xa2 <__bad_interrupt>
  34:	0c 94 51 00 	jmp	0xa2	; 0xa2 <__bad_interrupt>
  38:	0c 94 51 00 	jmp	0xa2	; 0xa2 <__bad_interrupt>
  3c:	0c 94 51 00 	jmp	0xa2	; 0xa2 <__bad_interrupt>
  40:	0c 94 d7 01 	jmp	0x3ae	; 0x3ae <__vector_16>
  44:	0c 94 51 00 	jmp	0xa2	; 0xa2 <__bad_interrupt>
  48:	0c 94 0f 05 	jmp	0xa1e	; 0xa1e <__vector_18>
  4c:	0c 94 51 00 	jmp	0xa2	; 0xa2 <__bad_interrupt>
  50:	0c 94 51 00 	jmp	0xa2	; 0xa2 <__bad_interrupt>
  54:	0c 94 53 00 	jmp	0xa6	; 0xa6 <__vector_21>
  58:	0c 94 51 00 	jmp	0xa2	; 0xa2 <__bad_interrupt>
  5c:	0c 94 51 00 	jmp	0xa2	; 0xa2 <__bad_interrupt>
  60:	0c 94 51 00 	jmp	0xa2	; 0xa2 <__bad_interrupt>
  64:	0c 94 51 00 	jmp	0xa2	; 0xa2 <__bad_interrupt>

00000068 <__ctors_end>:
  68:	11 24       	eor	r1, r1
  6a:	1f be       	out	0x3f, r1	; 63
  6c:	cf ef       	ldi	r28, 0xFF	; 255
  6e:	d8 e0       	ldi	r29, 0x08	; 8
  70:	de bf       	out	0x3e, r29	; 62
  72:	cd bf       	out	0x3d, r28	; 61

00000074 <__do_copy_data>:
  74:	11 e0       	ldi	r17, 0x01	; 1
  76:	a0 e0       	ldi	r26, 0x00	; 0
  78:	b1 e0       	ldi	r27, 0x01	; 1
  7a:	ee e9       	ldi	r30, 0x9E	; 158
  7c:	fa e0       	ldi	r31, 0x0A	; 10
  7e:	02 c0       	rjmp	.+4      	; 0x84 <.do_copy_data_start>

00000080 <.do_copy_data_loop>:
  80:	05 90       	lpm	r0, Z+
  82:	0d 92       	st	X+, r0

00000084 <.do_copy_data_start>:
  84:	a6 30       	cpi	r26, 0x06	; 6
  86:	b1 07       	cpc	r27, r17
  88:	d9 f7       	brne	.-10     	; 0x80 <.do_copy_data_loop>

0000008a <__do_clear_bss>:
  8a:	13 e0       	ldi	r17, 0x03	; 3
  8c:	a6 e0       	ldi	r26, 0x06	; 6
  8e:	b1 e0       	ldi	r27, 0x01	; 1
  90:	01 c0       	rjmp	.+2      	; 0x94 <.do_clear_bss_start>

00000092 <.do_clear_bss_loop>:
  92:	1d 92       	st	X+, r1

00000094 <.do_clear_bss_start>:
  94:	a2 3f       	cpi	r26, 0xF2	; 242
  96:	b1 07       	cpc	r27, r17
  98:	e1 f7       	brne	.-8      	; 0x92 <.do_clear_bss_loop>
  9a:	0e 94 e0 02 	call	0x5c0	; 0x5c0 <main>
  9e:	0c 94 4d 05 	jmp	0xa9a	; 0xa9a <_exit>

000000a2 <__bad_interrupt>:
  a2:	0c 94 00 00 	jmp	0	; 0x0 <__vectors>

000000a6 <__vector_21>:
  a6:	1f 92       	push	r1
  a8:	0f 92       	push	r0
  aa:	0f b6       	in	r0, 0x3f	; 63
  ac:	0f 92       	push	r0
  ae:	11 24       	eor	r1, r1
  b0:	0f 90       	pop	r0
  b2:	0f be       	out	0x3f, r0	; 63
  b4:	0f 90       	pop	r0
  b6:	1f 90       	pop	r1
  b8:	18 95       	reti

000000ba <adc_start>:
  ba:	90 91 7a 00 	lds	r25, 0x007A
  be:	97 60       	ori	r25, 0x07	; 7
  c0:	90 93 7a 00 	sts	0x007A, r25
  c4:	90 91 7c 00 	lds	r25, 0x007C
  c8:	90 64       	ori	r25, 0x40	; 64
  ca:	90 93 7c 00 	sts	0x007C, r25
  ce:	88 23       	and	r24, r24
  d0:	29 f0       	breq	.+10     	; 0xdc <adc_start+0x22>
  d2:	80 91 7c 00 	lds	r24, 0x007C
  d6:	80 62       	ori	r24, 0x20	; 32
  d8:	80 93 7c 00 	sts	0x007C, r24
  dc:	80 91 7a 00 	lds	r24, 0x007A
  e0:	80 62       	ori	r24, 0x20	; 32
  e2:	80 93 7a 00 	sts	0x007A, r24
  e6:	80 91 7a 00 	lds	r24, 0x007A
  ea:	80 68       	ori	r24, 0x80	; 128
  ec:	80 93 7a 00 	sts	0x007A, r24
  f0:	80 91 7a 00 	lds	r24, 0x007A
  f4:	88 60       	ori	r24, 0x08	; 8
  f6:	80 93 7a 00 	sts	0x007A, r24
  fa:	78 94       	sei
  fc:	80 91 7a 00 	lds	r24, 0x007A
 100:	80 64       	ori	r24, 0x40	; 64
 102:	80 93 7a 00 	sts	0x007A, r24
 106:	08 95       	ret

00000108 <adc_stop>:
 108:	ea e7       	ldi	r30, 0x7A	; 122
 10a:	f0 e0       	ldi	r31, 0x00	; 0
 10c:	80 81       	ld	r24, Z
 10e:	8f 7b       	andi	r24, 0xBF	; 191
 110:	80 83       	st	Z, r24
 112:	08 95       	ret

00000114 <adc_change>:
 114:	98 2f       	mov	r25, r24
 116:	80 91 7a 00 	lds	r24, 0x007A
 11a:	8f 7b       	andi	r24, 0xBF	; 191
 11c:	80 93 7a 00 	sts	0x007A, r24
 120:	94 33       	cpi	r25, 0x34	; 52
 122:	09 f4       	brne	.+2      	; 0x126 <adc_change+0x12>
 124:	a6 c0       	rjmp	.+332    	; 0x272 <adc_change+0x15e>
 126:	95 33       	cpi	r25, 0x35	; 53
 128:	d4 f0       	brlt	.+52     	; 0x15e <adc_change+0x4a>
 12a:	96 33       	cpi	r25, 0x36	; 54
 12c:	09 f4       	brne	.+2      	; 0x130 <adc_change+0x1c>
 12e:	6c c0       	rjmp	.+216    	; 0x208 <adc_change+0xf4>
 130:	96 33       	cpi	r25, 0x36	; 54
 132:	dc f1       	brlt	.+118    	; 0x1aa <adc_change+0x96>
 134:	97 33       	cpi	r25, 0x37	; 55
 136:	09 f4       	brne	.+2      	; 0x13a <adc_change+0x26>
 138:	7c c0       	rjmp	.+248    	; 0x232 <adc_change+0x11e>
 13a:	98 33       	cpi	r25, 0x38	; 56
 13c:	51 f4       	brne	.+20     	; 0x152 <adc_change+0x3e>
 13e:	80 91 7c 00 	lds	r24, 0x007C
 142:	88 7f       	andi	r24, 0xF8	; 248
 144:	80 93 7c 00 	sts	0x007C, r24
 148:	80 91 7c 00 	lds	r24, 0x007C
 14c:	88 60       	ori	r24, 0x08	; 8
 14e:	80 93 7c 00 	sts	0x007C, r24
 152:	80 91 7a 00 	lds	r24, 0x007A
 156:	80 64       	ori	r24, 0x40	; 64
 158:	80 93 7a 00 	sts	0x007A, r24
 15c:	08 95       	ret
 15e:	91 33       	cpi	r25, 0x31	; 49
 160:	09 f4       	brne	.+2      	; 0x164 <adc_change+0x50>
 162:	77 c0       	rjmp	.+238    	; 0x252 <adc_change+0x13e>
 164:	92 33       	cpi	r25, 0x32	; 50
 166:	a4 f0       	brlt	.+40     	; 0x190 <adc_change+0x7c>
 168:	92 33       	cpi	r25, 0x32	; 50
 16a:	c9 f1       	breq	.+114    	; 0x1de <adc_change+0xca>
 16c:	93 33       	cpi	r25, 0x33	; 51
 16e:	89 f7       	brne	.-30     	; 0x152 <adc_change+0x3e>
 170:	80 91 7c 00 	lds	r24, 0x007C
 174:	83 60       	ori	r24, 0x03	; 3
 176:	80 93 7c 00 	sts	0x007C, r24
 17a:	80 91 7c 00 	lds	r24, 0x007C
 17e:	83 7f       	andi	r24, 0xF3	; 243
 180:	80 93 7c 00 	sts	0x007C, r24
 184:	80 91 7a 00 	lds	r24, 0x007A
 188:	80 64       	ori	r24, 0x40	; 64
 18a:	80 93 7a 00 	sts	0x007A, r24
 18e:	08 95       	ret
 190:	90 33       	cpi	r25, 0x30	; 48
 192:	f9 f6       	brne	.-66     	; 0x152 <adc_change+0x3e>
 194:	80 91 7c 00 	lds	r24, 0x007C
 198:	80 7f       	andi	r24, 0xF0	; 240
 19a:	80 93 7c 00 	sts	0x007C, r24
 19e:	80 91 7a 00 	lds	r24, 0x007A
 1a2:	80 64       	ori	r24, 0x40	; 64
 1a4:	80 93 7a 00 	sts	0x007A, r24
 1a8:	08 95       	ret
 1aa:	80 91 7c 00 	lds	r24, 0x007C
 1ae:	81 60       	ori	r24, 0x01	; 1
 1b0:	80 93 7c 00 	sts	0x007C, r24
 1b4:	80 91 7c 00 	lds	r24, 0x007C
 1b8:	8d 7f       	andi	r24, 0xFD	; 253
 1ba:	80 93 7c 00 	sts	0x007C, r24
 1be:	80 91 7c 00 	lds	r24, 0x007C
 1c2:	84 60       	ori	r24, 0x04	; 4
 1c4:	80 93 7c 00 	sts	0x007C, r24
 1c8:	80 91 7c 00 	lds	r24, 0x007C
 1cc:	87 7f       	andi	r24, 0xF7	; 247
 1ce:	80 93 7c 00 	sts	0x007C, r24
 1d2:	80 91 7a 00 	lds	r24, 0x007A
 1d6:	80 64       	ori	r24, 0x40	; 64
 1d8:	80 93 7a 00 	sts	0x007A, r24
 1dc:	08 95       	ret
 1de:	80 91 7c 00 	lds	r24, 0x007C
 1e2:	8e 7f       	andi	r24, 0xFE	; 254
 1e4:	80 93 7c 00 	sts	0x007C, r24
 1e8:	80 91 7c 00 	lds	r24, 0x007C
 1ec:	82 60       	ori	r24, 0x02	; 2
 1ee:	80 93 7c 00 	sts	0x007C, r24
 1f2:	80 91 7c 00 	lds	r24, 0x007C
 1f6:	83 7f       	andi	r24, 0xF3	; 243
 1f8:	80 93 7c 00 	sts	0x007C, r24
 1fc:	80 91 7a 00 	lds	r24, 0x007A
 200:	80 64       	ori	r24, 0x40	; 64
 202:	80 93 7a 00 	sts	0x007A, r24
 206:	08 95       	ret
 208:	80 91 7c 00 	lds	r24, 0x007C
 20c:	8e 7f       	andi	r24, 0xFE	; 254
 20e:	80 93 7c 00 	sts	0x007C, r24
 212:	80 91 7c 00 	lds	r24, 0x007C
 216:	86 60       	ori	r24, 0x06	; 6
 218:	80 93 7c 00 	sts	0x007C, r24
 21c:	80 91 7c 00 	lds	r24, 0x007C
 220:	87 7f       	andi	r24, 0xF7	; 247
 222:	80 93 7c 00 	sts	0x007C, r24
 226:	80 91 7a 00 	lds	r24, 0x007A
 22a:	80 64       	ori	r24, 0x40	; 64
 22c:	80 93 7a 00 	sts	0x007A, r24
 230:	08 95       	ret
 232:	80 91 7c 00 	lds	r24, 0x007C
 236:	87 60       	ori	r24, 0x07	; 7
 238:	80 93 7c 00 	sts	0x007C, r24
 23c:	80 91 7c 00 	lds	r24, 0x007C
 240:	87 7f       	andi	r24, 0xF7	; 247
 242:	80 93 7c 00 	sts	0x007C, r24
 246:	80 91 7a 00 	lds	r24, 0x007A
 24a:	80 64       	ori	r24, 0x40	; 64
 24c:	80 93 7a 00 	sts	0x007A, r24
 250:	08 95       	ret
 252:	80 91 7c 00 	lds	r24, 0x007C
 256:	81 60       	ori	r24, 0x01	; 1
 258:	80 93 7c 00 	sts	0x007C, r24
 25c:	80 91 7c 00 	lds	r24, 0x007C
 260:	81 7f       	andi	r24, 0xF1	; 241
 262:	80 93 7c 00 	sts	0x007C, r24
 266:	80 91 7a 00 	lds	r24, 0x007A
 26a:	80 64       	ori	r24, 0x40	; 64
 26c:	80 93 7a 00 	sts	0x007A, r24
 270:	08 95       	ret
 272:	80 91 7c 00 	lds	r24, 0x007C
 276:	8c 7f       	andi	r24, 0xFC	; 252
 278:	a0 cf       	rjmp	.-192    	; 0x1ba <adc_change+0xa6>

0000027a <bios>:
 27a:	52 9a       	sbi	0x0a, 2	; 10
 27c:	5a 9a       	sbi	0x0b, 2	; 11
 27e:	55 9a       	sbi	0x0a, 5	; 10
 280:	56 9a       	sbi	0x0a, 6	; 10
 282:	52 9a       	sbi	0x0a, 2	; 10
 284:	53 9a       	sbi	0x0a, 3	; 10
 286:	0e 94 ee 02 	call	0x5dc	; 0x5dc <pwm_setup_all>
 28a:	81 e0       	ldi	r24, 0x01	; 1
 28c:	0e 94 5d 00 	call	0xba	; 0xba <adc_start>
 290:	0e 94 a6 04 	call	0x94c	; 0x94c <uart_start>
 294:	0e 94 11 02 	call	0x422	; 0x422 <twi_start>
 298:	8a b1       	in	r24, 0x0a	; 10
 29a:	8a b9       	out	0x0a, r24	; 10
 29c:	0e 94 b6 01 	call	0x36c	; 0x36c <setup_timer0>
 2a0:	08 95       	ret

000002a2 <portB_out>:
 2a2:	38 2f       	mov	r19, r24
 2a4:	66 23       	and	r22, r22
 2a6:	59 f0       	breq	.+22     	; 0x2be <portB_out+0x1c>
 2a8:	25 b1       	in	r18, 0x05	; 5
 2aa:	81 e0       	ldi	r24, 0x01	; 1
 2ac:	90 e0       	ldi	r25, 0x00	; 0
 2ae:	02 c0       	rjmp	.+4      	; 0x2b4 <portB_out+0x12>
 2b0:	88 0f       	add	r24, r24
 2b2:	99 1f       	adc	r25, r25
 2b4:	3a 95       	dec	r19
 2b6:	e2 f7       	brpl	.-8      	; 0x2b0 <portB_out+0xe>
 2b8:	28 2b       	or	r18, r24
 2ba:	25 b9       	out	0x05, r18	; 5
 2bc:	08 95       	ret
 2be:	25 b1       	in	r18, 0x05	; 5
 2c0:	81 e0       	ldi	r24, 0x01	; 1
 2c2:	90 e0       	ldi	r25, 0x00	; 0
 2c4:	02 c0       	rjmp	.+4      	; 0x2ca <portB_out+0x28>
 2c6:	88 0f       	add	r24, r24
 2c8:	99 1f       	adc	r25, r25
 2ca:	3a 95       	dec	r19
 2cc:	e2 f7       	brpl	.-8      	; 0x2c6 <portB_out+0x24>
 2ce:	80 95       	com	r24
 2d0:	82 23       	and	r24, r18
 2d2:	85 b9       	out	0x05, r24	; 5
 2d4:	08 95       	ret

000002d6 <portD_out>:
 2d6:	38 2f       	mov	r19, r24
 2d8:	66 23       	and	r22, r22
 2da:	59 f0       	breq	.+22     	; 0x2f2 <portD_out+0x1c>
 2dc:	2b b1       	in	r18, 0x0b	; 11
 2de:	81 e0       	ldi	r24, 0x01	; 1
 2e0:	90 e0       	ldi	r25, 0x00	; 0
 2e2:	02 c0       	rjmp	.+4      	; 0x2e8 <portD_out+0x12>
 2e4:	88 0f       	add	r24, r24
 2e6:	99 1f       	adc	r25, r25
 2e8:	3a 95       	dec	r19
 2ea:	e2 f7       	brpl	.-8      	; 0x2e4 <portD_out+0xe>
 2ec:	28 2b       	or	r18, r24
 2ee:	2b b9       	out	0x0b, r18	; 11
 2f0:	08 95       	ret
 2f2:	2b b1       	in	r18, 0x0b	; 11
 2f4:	81 e0       	ldi	r24, 0x01	; 1
 2f6:	90 e0       	ldi	r25, 0x00	; 0
 2f8:	02 c0       	rjmp	.+4      	; 0x2fe <portD_out+0x28>
 2fa:	88 0f       	add	r24, r24
 2fc:	99 1f       	adc	r25, r25
 2fe:	3a 95       	dec	r19
 300:	e2 f7       	brpl	.-8      	; 0x2fa <portD_out+0x24>
 302:	80 95       	com	r24
 304:	82 23       	and	r24, r18
 306:	8b b9       	out	0x0b, r24	; 11
 308:	08 95       	ret

0000030a <out>:
 30a:	82 34       	cpi	r24, 0x42	; 66
 30c:	a1 f0       	breq	.+40     	; 0x336 <out+0x2c>
 30e:	84 34       	cpi	r24, 0x44	; 68
 310:	09 f0       	breq	.+2      	; 0x314 <out+0xa>
 312:	08 95       	ret
 314:	2a b1       	in	r18, 0x0a	; 10
 316:	81 e0       	ldi	r24, 0x01	; 1
 318:	90 e0       	ldi	r25, 0x00	; 0
 31a:	02 c0       	rjmp	.+4      	; 0x320 <out+0x16>
 31c:	88 0f       	add	r24, r24
 31e:	99 1f       	adc	r25, r25
 320:	6a 95       	dec	r22
 322:	e2 f7       	brpl	.-8      	; 0x31c <out+0x12>
 324:	98 2f       	mov	r25, r24
 326:	28 2b       	or	r18, r24
 328:	2a b9       	out	0x0a, r18	; 10
 32a:	44 23       	and	r20, r20
 32c:	b1 f0       	breq	.+44     	; 0x35a <out+0x50>
 32e:	8b b1       	in	r24, 0x0b	; 11
 330:	98 2b       	or	r25, r24
 332:	9b b9       	out	0x0b, r25	; 11
 334:	08 95       	ret
 336:	24 b1       	in	r18, 0x04	; 4
 338:	81 e0       	ldi	r24, 0x01	; 1
 33a:	90 e0       	ldi	r25, 0x00	; 0
 33c:	02 c0       	rjmp	.+4      	; 0x342 <out+0x38>
 33e:	88 0f       	add	r24, r24
 340:	99 1f       	adc	r25, r25
 342:	6a 95       	dec	r22
 344:	e2 f7       	brpl	.-8      	; 0x33e <out+0x34>
 346:	98 2f       	mov	r25, r24
 348:	28 2b       	or	r18, r24
 34a:	24 b9       	out	0x04, r18	; 4
 34c:	44 23       	and	r20, r20
 34e:	51 f4       	brne	.+20     	; 0x364 <out+0x5a>
 350:	85 b1       	in	r24, 0x05	; 5
 352:	90 95       	com	r25
 354:	98 23       	and	r25, r24
 356:	95 b9       	out	0x05, r25	; 5
 358:	08 95       	ret
 35a:	8b b1       	in	r24, 0x0b	; 11
 35c:	90 95       	com	r25
 35e:	98 23       	and	r25, r24
 360:	9b b9       	out	0x0b, r25	; 11
 362:	08 95       	ret
 364:	85 b1       	in	r24, 0x05	; 5
 366:	98 2b       	or	r25, r24
 368:	95 b9       	out	0x05, r25	; 5
 36a:	08 95       	ret

0000036c <setup_timer0>:
 36c:	16 bc       	out	0x26, r1	; 38
 36e:	85 b5       	in	r24, 0x25	; 37
 370:	82 60       	ori	r24, 0x02	; 2
 372:	85 bd       	out	0x25, r24	; 37
 374:	ee e6       	ldi	r30, 0x6E	; 110
 376:	f0 e0       	ldi	r31, 0x00	; 0
 378:	80 81       	ld	r24, Z
 37a:	81 60       	ori	r24, 0x01	; 1
 37c:	80 83       	st	Z, r24
 37e:	08 95       	ret

00000380 <check_buttons>:
 380:	80 91 d1 03 	lds	r24, 0x03D1
 384:	8b 30       	cpi	r24, 0x0B	; 11
 386:	18 f0       	brcs	.+6      	; 0x38e <check_buttons+0xe>
 388:	81 e0       	ldi	r24, 0x01	; 1
 38a:	80 93 0d 01 	sts	0x010D, r24
 38e:	4b 99       	sbic	0x09, 3	; 9
 390:	02 c0       	rjmp	.+4      	; 0x396 <check_buttons+0x16>
 392:	10 92 0d 01 	sts	0x010D, r1
 396:	80 91 d2 03 	lds	r24, 0x03D2
 39a:	8b 30       	cpi	r24, 0x0B	; 11
 39c:	18 f0       	brcs	.+6      	; 0x3a4 <check_buttons+0x24>
 39e:	81 e0       	ldi	r24, 0x01	; 1
 3a0:	80 93 0e 01 	sts	0x010E, r24
 3a4:	4c 99       	sbic	0x09, 4	; 9
 3a6:	02 c0       	rjmp	.+4      	; 0x3ac <check_buttons+0x2c>
 3a8:	10 92 0e 01 	sts	0x010E, r1
 3ac:	08 95       	ret

000003ae <__vector_16>:
 3ae:	1f 92       	push	r1
 3b0:	0f 92       	push	r0
 3b2:	0f b6       	in	r0, 0x3f	; 63
 3b4:	0f 92       	push	r0
 3b6:	11 24       	eor	r1, r1
 3b8:	8f 93       	push	r24
 3ba:	4b 9b       	sbis	0x09, 3	; 9
 3bc:	0f c0       	rjmp	.+30     	; 0x3dc <__vector_16+0x2e>
 3be:	80 91 d1 03 	lds	r24, 0x03D1
 3c2:	8f 5f       	subi	r24, 0xFF	; 255
 3c4:	80 93 d1 03 	sts	0x03D1, r24
 3c8:	4c 99       	sbic	0x09, 4	; 9
 3ca:	0c c0       	rjmp	.+24     	; 0x3e4 <__vector_16+0x36>
 3cc:	10 92 d2 03 	sts	0x03D2, r1
 3d0:	8f 91       	pop	r24
 3d2:	0f 90       	pop	r0
 3d4:	0f be       	out	0x3f, r0	; 63
 3d6:	0f 90       	pop	r0
 3d8:	1f 90       	pop	r1
 3da:	18 95       	reti
 3dc:	10 92 d1 03 	sts	0x03D1, r1
 3e0:	4c 9b       	sbis	0x09, 4	; 9
 3e2:	f4 cf       	rjmp	.-24     	; 0x3cc <__vector_16+0x1e>
 3e4:	80 91 d2 03 	lds	r24, 0x03D2
 3e8:	8f 5f       	subi	r24, 0xFF	; 255
 3ea:	80 93 d2 03 	sts	0x03D2, r24
 3ee:	8f 91       	pop	r24
 3f0:	0f 90       	pop	r0
 3f2:	0f be       	out	0x3f, r0	; 63
 3f4:	0f 90       	pop	r0
 3f6:	1f 90       	pop	r1
 3f8:	18 95       	reti

000003fa <buttons>:
 3fa:	80 91 0d 01 	lds	r24, 0x010D
 3fe:	81 30       	cpi	r24, 0x01	; 1
 400:	19 f0       	breq	.+6      	; 0x408 <buttons+0xe>
 402:	10 92 f1 03 	sts	0x03F1, r1
 406:	08 95       	ret
 408:	81 e0       	ldi	r24, 0x01	; 1
 40a:	0e 94 60 03 	call	0x6c0	; 0x6c0 <ultrasound_filter>
 40e:	0e 94 ca 04 	call	0x994	; 0x994 <uart_sendint>
 412:	80 91 f1 03 	lds	r24, 0x03F1
 416:	88 23       	and	r24, r24
 418:	b9 f3       	breq	.-18     	; 0x408 <buttons+0xe>
 41a:	8f 5f       	subi	r24, 0xFF	; 255
 41c:	80 93 f1 03 	sts	0x03F1, r24
 420:	08 95       	ret

00000422 <twi_start>:
 422:	10 92 b9 00 	sts	0x00B9, r1
 426:	88 e4       	ldi	r24, 0x48	; 72
 428:	80 93 b8 00 	sts	0x00B8, r24
 42c:	08 95       	ret

0000042e <twi_tran>:
 42e:	81 30       	cpi	r24, 0x01	; 1
 430:	a9 f0       	breq	.+42     	; 0x45c <twi_tran+0x2e>
 432:	81 30       	cpi	r24, 0x01	; 1
 434:	50 f0       	brcs	.+20     	; 0x44a <twi_tran+0x1c>
 436:	82 30       	cpi	r24, 0x02	; 2
 438:	61 f0       	breq	.+24     	; 0x452 <twi_tran+0x24>
 43a:	80 91 bc 00 	lds	r24, 0x00BC
 43e:	87 ff       	sbrs	r24, 7
 440:	fc cf       	rjmp	.-8      	; 0x43a <twi_tran+0xc>
 442:	80 91 b9 00 	lds	r24, 0x00B9
 446:	88 7f       	andi	r24, 0xF8	; 248
 448:	08 95       	ret
 44a:	84 ea       	ldi	r24, 0xA4	; 164
 44c:	80 93 bc 00 	sts	0x00BC, r24
 450:	f4 cf       	rjmp	.-24     	; 0x43a <twi_tran+0xc>
 452:	84 e9       	ldi	r24, 0x94	; 148
 454:	80 93 bc 00 	sts	0x00BC, r24
 458:	80 e0       	ldi	r24, 0x00	; 0
 45a:	08 95       	ret
 45c:	84 e8       	ldi	r24, 0x84	; 132
 45e:	80 93 bc 00 	sts	0x00BC, r24
 462:	eb cf       	rjmp	.-42     	; 0x43a <twi_tran+0xc>

00000464 <twi_mcp_read>:
 464:	91 e3       	ldi	r25, 0x31	; 49
 466:	34 ea       	ldi	r19, 0xA4	; 164
 468:	28 2f       	mov	r18, r24
 46a:	21 60       	ori	r18, 0x01	; 1
 46c:	44 e8       	ldi	r20, 0x84	; 132
 46e:	30 93 bc 00 	sts	0x00BC, r19
 472:	80 91 bc 00 	lds	r24, 0x00BC
 476:	87 ff       	sbrs	r24, 7
 478:	fc cf       	rjmp	.-8      	; 0x472 <twi_mcp_read+0xe>
 47a:	80 91 b9 00 	lds	r24, 0x00B9
 47e:	88 7f       	andi	r24, 0xF8	; 248
 480:	88 33       	cpi	r24, 0x38	; 56
 482:	99 f0       	breq	.+38     	; 0x4aa <twi_mcp_read+0x46>
 484:	88 30       	cpi	r24, 0x08	; 8
 486:	11 f0       	breq	.+4      	; 0x48c <twi_mcp_read+0x28>
 488:	80 31       	cpi	r24, 0x10	; 16
 48a:	e1 f4       	brne	.+56     	; 0x4c4 <twi_mcp_read+0x60>
 48c:	20 93 bb 00 	sts	0x00BB, r18
 490:	40 93 bc 00 	sts	0x00BC, r20
 494:	80 91 bc 00 	lds	r24, 0x00BC
 498:	87 ff       	sbrs	r24, 7
 49a:	fc cf       	rjmp	.-8      	; 0x494 <twi_mcp_read+0x30>
 49c:	80 91 b9 00 	lds	r24, 0x00B9
 4a0:	88 7f       	andi	r24, 0xF8	; 248
 4a2:	80 32       	cpi	r24, 0x20	; 32
 4a4:	11 f0       	breq	.+4      	; 0x4aa <twi_mcp_read+0x46>
 4a6:	88 33       	cpi	r24, 0x38	; 56
 4a8:	29 f4       	brne	.+10     	; 0x4b4 <twi_mcp_read+0x50>
 4aa:	91 50       	subi	r25, 0x01	; 1
 4ac:	00 f7       	brcc	.-64     	; 0x46e <twi_mcp_read+0xa>
 4ae:	8f ef       	ldi	r24, 0xFF	; 255
 4b0:	9f ef       	ldi	r25, 0xFF	; 255
 4b2:	08 95       	ret
 4b4:	88 31       	cpi	r24, 0x18	; 24
 4b6:	31 f4       	brne	.+12     	; 0x4c4 <twi_mcp_read+0x60>
 4b8:	80 91 bb 00 	lds	r24, 0x00BB
 4bc:	80 93 0f 01 	sts	0x010F, r24
 4c0:	10 92 10 01 	sts	0x0110, r1
 4c4:	84 e9       	ldi	r24, 0x94	; 148
 4c6:	80 93 bc 00 	sts	0x00BC, r24
 4ca:	8f ef       	ldi	r24, 0xFF	; 255
 4cc:	9f ef       	ldi	r25, 0xFF	; 255
 4ce:	08 95       	ret

000004d0 <twi_mcp_dac>:
 4d0:	ff 92       	push	r15
 4d2:	0f 93       	push	r16
 4d4:	1f 93       	push	r17
 4d6:	28 2f       	mov	r18, r24
 4d8:	06 2f       	mov	r16, r22
 4da:	f7 2e       	mov	r15, r23
 4dc:	14 2f       	mov	r17, r20
 4de:	91 e3       	ldi	r25, 0x31	; 49
 4e0:	34 ea       	ldi	r19, 0xA4	; 164
 4e2:	44 e8       	ldi	r20, 0x84	; 132
 4e4:	30 93 bc 00 	sts	0x00BC, r19
 4e8:	80 91 bc 00 	lds	r24, 0x00BC
 4ec:	87 ff       	sbrs	r24, 7
 4ee:	fc cf       	rjmp	.-8      	; 0x4e8 <twi_mcp_dac+0x18>
 4f0:	80 91 b9 00 	lds	r24, 0x00B9
 4f4:	88 7f       	andi	r24, 0xF8	; 248
 4f6:	88 33       	cpi	r24, 0x38	; 56
 4f8:	99 f0       	breq	.+38     	; 0x520 <twi_mcp_dac+0x50>
 4fa:	88 30       	cpi	r24, 0x08	; 8
 4fc:	11 f0       	breq	.+4      	; 0x502 <twi_mcp_dac+0x32>
 4fe:	80 31       	cpi	r24, 0x10	; 16
 500:	21 f5       	brne	.+72     	; 0x54a <twi_mcp_dac+0x7a>
 502:	20 93 bb 00 	sts	0x00BB, r18
 506:	40 93 bc 00 	sts	0x00BC, r20
 50a:	80 91 bc 00 	lds	r24, 0x00BC
 50e:	87 ff       	sbrs	r24, 7
 510:	fc cf       	rjmp	.-8      	; 0x50a <twi_mcp_dac+0x3a>
 512:	80 91 b9 00 	lds	r24, 0x00B9
 516:	88 7f       	andi	r24, 0xF8	; 248
 518:	80 32       	cpi	r24, 0x20	; 32
 51a:	11 f0       	breq	.+4      	; 0x520 <twi_mcp_dac+0x50>
 51c:	88 33       	cpi	r24, 0x38	; 56
 51e:	49 f4       	brne	.+18     	; 0x532 <twi_mcp_dac+0x62>
 520:	91 50       	subi	r25, 0x01	; 1
 522:	00 f7       	brcc	.-64     	; 0x4e4 <twi_mcp_dac+0x14>
 524:	2f ef       	ldi	r18, 0xFF	; 255
 526:	3f ef       	ldi	r19, 0xFF	; 255
 528:	c9 01       	movw	r24, r18
 52a:	1f 91       	pop	r17
 52c:	0f 91       	pop	r16
 52e:	ff 90       	pop	r15
 530:	08 95       	ret
 532:	88 31       	cpi	r24, 0x18	; 24
 534:	51 f4       	brne	.+20     	; 0x54a <twi_mcp_dac+0x7a>
 536:	11 23       	and	r17, r17
 538:	91 f0       	breq	.+36     	; 0x55e <twi_mcp_dac+0x8e>
 53a:	80 e6       	ldi	r24, 0x60	; 96
 53c:	80 93 bb 00 	sts	0x00BB, r24
 540:	81 e0       	ldi	r24, 0x01	; 1
 542:	0e 94 17 02 	call	0x42e	; 0x42e <twi_tran>
 546:	88 32       	cpi	r24, 0x28	; 40
 548:	71 f0       	breq	.+28     	; 0x566 <twi_mcp_dac+0x96>
 54a:	2f ef       	ldi	r18, 0xFF	; 255
 54c:	3f ef       	ldi	r19, 0xFF	; 255
 54e:	84 e9       	ldi	r24, 0x94	; 148
 550:	80 93 bc 00 	sts	0x00BC, r24
 554:	c9 01       	movw	r24, r18
 556:	1f 91       	pop	r17
 558:	0f 91       	pop	r16
 55a:	ff 90       	pop	r15
 55c:	08 95       	ret
 55e:	80 e4       	ldi	r24, 0x40	; 64
 560:	80 93 bb 00 	sts	0x00BB, r24
 564:	ed cf       	rjmp	.-38     	; 0x540 <twi_mcp_dac+0x70>
 566:	00 93 bb 00 	sts	0x00BB, r16
 56a:	81 e0       	ldi	r24, 0x01	; 1
 56c:	0e 94 17 02 	call	0x42e	; 0x42e <twi_tran>
 570:	88 32       	cpi	r24, 0x28	; 40
 572:	59 f7       	brne	.-42     	; 0x54a <twi_mcp_dac+0x7a>
 574:	f0 92 bb 00 	sts	0x00BB, r15
 578:	81 e0       	ldi	r24, 0x01	; 1
 57a:	0e 94 17 02 	call	0x42e	; 0x42e <twi_tran>
 57e:	88 32       	cpi	r24, 0x28	; 40
 580:	21 f7       	brne	.-56     	; 0x54a <twi_mcp_dac+0x7a>
 582:	11 23       	and	r17, r17
 584:	c9 f0       	breq	.+50     	; 0x5b8 <twi_mcp_dac+0xe8>
 586:	80 e6       	ldi	r24, 0x60	; 96
 588:	80 93 bb 00 	sts	0x00BB, r24
 58c:	81 e0       	ldi	r24, 0x01	; 1
 58e:	0e 94 17 02 	call	0x42e	; 0x42e <twi_tran>
 592:	88 32       	cpi	r24, 0x28	; 40
 594:	d1 f6       	brne	.-76     	; 0x54a <twi_mcp_dac+0x7a>
 596:	00 93 bb 00 	sts	0x00BB, r16
 59a:	81 e0       	ldi	r24, 0x01	; 1
 59c:	0e 94 17 02 	call	0x42e	; 0x42e <twi_tran>
 5a0:	88 32       	cpi	r24, 0x28	; 40
 5a2:	99 f6       	brne	.-90     	; 0x54a <twi_mcp_dac+0x7a>
 5a4:	f0 92 bb 00 	sts	0x00BB, r15
 5a8:	81 e0       	ldi	r24, 0x01	; 1
 5aa:	0e 94 17 02 	call	0x42e	; 0x42e <twi_tran>
 5ae:	88 32       	cpi	r24, 0x28	; 40
 5b0:	61 f6       	brne	.-104    	; 0x54a <twi_mcp_dac+0x7a>
 5b2:	21 e0       	ldi	r18, 0x01	; 1
 5b4:	30 e0       	ldi	r19, 0x00	; 0
 5b6:	cb cf       	rjmp	.-106    	; 0x54e <twi_mcp_dac+0x7e>
 5b8:	80 e4       	ldi	r24, 0x40	; 64
 5ba:	80 93 bb 00 	sts	0x00BB, r24
 5be:	e6 cf       	rjmp	.-52     	; 0x58c <twi_mcp_dac+0xbc>

000005c0 <main>:
 5c0:	0e 94 3d 01 	call	0x27a	; 0x27a <bios>
 5c4:	81 e0       	ldi	r24, 0x01	; 1
 5c6:	0e 94 f7 03 	call	0x7ee	; 0x7ee <calibrate>
 5ca:	80 e0       	ldi	r24, 0x00	; 0
 5cc:	91 e0       	ldi	r25, 0x01	; 1
 5ce:	0e 94 e0 04 	call	0x9c0	; 0x9c0 <uart_sendchar>
 5d2:	0e 94 c0 01 	call	0x380	; 0x380 <check_buttons>
 5d6:	0e 94 fd 01 	call	0x3fa	; 0x3fa <buttons>
 5da:	fb cf       	rjmp	.-10     	; 0x5d2 <main+0x12>

000005dc <pwm_setup_all>:
 5dc:	85 b5       	in	r24, 0x25	; 37
 5de:	83 60       	ori	r24, 0x03	; 3
 5e0:	85 bd       	out	0x25, r24	; 37
 5e2:	84 b5       	in	r24, 0x24	; 36
 5e4:	81 60       	ori	r24, 0x01	; 1
 5e6:	84 bd       	out	0x24, r24	; 36
 5e8:	55 9a       	sbi	0x0a, 5	; 10
 5ea:	56 9a       	sbi	0x0a, 6	; 10
 5ec:	e1 e8       	ldi	r30, 0x81	; 129
 5ee:	f0 e0       	ldi	r31, 0x00	; 0
 5f0:	80 81       	ld	r24, Z
 5f2:	83 60       	ori	r24, 0x03	; 3
 5f4:	80 83       	st	Z, r24
 5f6:	e0 e8       	ldi	r30, 0x80	; 128
 5f8:	f0 e0       	ldi	r31, 0x00	; 0
 5fa:	80 81       	ld	r24, Z
 5fc:	83 60       	ori	r24, 0x03	; 3
 5fe:	80 83       	st	Z, r24
 600:	21 9a       	sbi	0x04, 1	; 4
 602:	22 9a       	sbi	0x04, 2	; 4
 604:	e1 eb       	ldi	r30, 0xB1	; 177
 606:	f0 e0       	ldi	r31, 0x00	; 0
 608:	80 81       	ld	r24, Z
 60a:	84 60       	ori	r24, 0x04	; 4
 60c:	80 83       	st	Z, r24
 60e:	e0 eb       	ldi	r30, 0xB0	; 176
 610:	f0 e0       	ldi	r31, 0x00	; 0
 612:	80 81       	ld	r24, Z
 614:	81 60       	ori	r24, 0x01	; 1
 616:	80 83       	st	Z, r24
 618:	53 9a       	sbi	0x0a, 3	; 10
 61a:	23 9a       	sbi	0x04, 3	; 4
 61c:	08 95       	ret

0000061e <pwm_setup0>:
 61e:	85 b5       	in	r24, 0x25	; 37
 620:	83 60       	ori	r24, 0x03	; 3
 622:	85 bd       	out	0x25, r24	; 37
 624:	84 b5       	in	r24, 0x24	; 36
 626:	81 60       	ori	r24, 0x01	; 1
 628:	84 bd       	out	0x24, r24	; 36
 62a:	55 9a       	sbi	0x0a, 5	; 10
 62c:	56 9a       	sbi	0x0a, 6	; 10
 62e:	08 95       	ret

00000630 <pwm0A>:
 630:	94 b5       	in	r25, 0x24	; 36
 632:	90 68       	ori	r25, 0x80	; 128
 634:	94 bd       	out	0x24, r25	; 36
 636:	87 bd       	out	0x27, r24	; 39
 638:	08 95       	ret

0000063a <pwm0B>:
 63a:	94 b5       	in	r25, 0x24	; 36
 63c:	90 62       	ori	r25, 0x20	; 32
 63e:	94 bd       	out	0x24, r25	; 36
 640:	88 bd       	out	0x28, r24	; 40
 642:	08 95       	ret

00000644 <pwm_setup1>:
 644:	e1 e8       	ldi	r30, 0x81	; 129
 646:	f0 e0       	ldi	r31, 0x00	; 0
 648:	80 81       	ld	r24, Z
 64a:	83 60       	ori	r24, 0x03	; 3
 64c:	80 83       	st	Z, r24
 64e:	e0 e8       	ldi	r30, 0x80	; 128
 650:	f0 e0       	ldi	r31, 0x00	; 0
 652:	80 81       	ld	r24, Z
 654:	8a 61       	ori	r24, 0x1A	; 26
 656:	80 83       	st	Z, r24
 658:	21 9a       	sbi	0x04, 1	; 4
 65a:	22 9a       	sbi	0x04, 2	; 4
 65c:	08 95       	ret

0000065e <pwm1A>:
 65e:	e0 e8       	ldi	r30, 0x80	; 128
 660:	f0 e0       	ldi	r31, 0x00	; 0
 662:	20 81       	ld	r18, Z
 664:	20 68       	ori	r18, 0x80	; 128
 666:	20 83       	st	Z, r18
 668:	90 93 89 00 	sts	0x0089, r25
 66c:	80 93 88 00 	sts	0x0088, r24
 670:	08 95       	ret

00000672 <pwm1B>:
 672:	e0 e8       	ldi	r30, 0x80	; 128
 674:	f0 e0       	ldi	r31, 0x00	; 0
 676:	20 81       	ld	r18, Z
 678:	20 62       	ori	r18, 0x20	; 32
 67a:	20 83       	st	Z, r18
 67c:	90 93 8b 00 	sts	0x008B, r25
 680:	80 93 8a 00 	sts	0x008A, r24
 684:	08 95       	ret

00000686 <pwm_setup2>:
 686:	e1 eb       	ldi	r30, 0xB1	; 177
 688:	f0 e0       	ldi	r31, 0x00	; 0
 68a:	80 81       	ld	r24, Z
 68c:	84 60       	ori	r24, 0x04	; 4
 68e:	80 83       	st	Z, r24
 690:	e0 eb       	ldi	r30, 0xB0	; 176
 692:	f0 e0       	ldi	r31, 0x00	; 0
 694:	80 81       	ld	r24, Z
 696:	81 60       	ori	r24, 0x01	; 1
 698:	80 83       	st	Z, r24
 69a:	53 9a       	sbi	0x0a, 3	; 10
 69c:	23 9a       	sbi	0x04, 3	; 4
 69e:	08 95       	ret

000006a0 <pwm2A>:
 6a0:	e0 eb       	ldi	r30, 0xB0	; 176
 6a2:	f0 e0       	ldi	r31, 0x00	; 0
 6a4:	90 81       	ld	r25, Z
 6a6:	90 68       	ori	r25, 0x80	; 128
 6a8:	90 83       	st	Z, r25
 6aa:	80 93 b3 00 	sts	0x00B3, r24
 6ae:	08 95       	ret

000006b0 <pwm2B>:
 6b0:	e0 eb       	ldi	r30, 0xB0	; 176
 6b2:	f0 e0       	ldi	r31, 0x00	; 0
 6b4:	90 81       	ld	r25, Z
 6b6:	90 62       	ori	r25, 0x20	; 32
 6b8:	90 83       	st	Z, r25
 6ba:	80 93 b4 00 	sts	0x00B4, r24
 6be:	08 95       	ret

000006c0 <ultrasound_filter>:
 6c0:	0e 94 8a 00 	call	0x114	; 0x114 <adc_change>
 6c4:	20 e0       	ldi	r18, 0x00	; 0
 6c6:	30 e0       	ldi	r19, 0x00	; 0
 6c8:	40 e9       	ldi	r20, 0x90	; 144
 6ca:	51 e0       	ldi	r21, 0x01	; 1
 6cc:	ca 01       	movw	r24, r20
 6ce:	01 97       	sbiw	r24, 0x01	; 1
 6d0:	f1 f7       	brne	.-4      	; 0x6ce <ultrasound_filter+0xe>
 6d2:	2f 5f       	subi	r18, 0xFF	; 255
 6d4:	3f 4f       	sbci	r19, 0xFF	; 255
 6d6:	28 3c       	cpi	r18, 0xC8	; 200
 6d8:	31 05       	cpc	r19, r1
 6da:	c1 f7       	brne	.-16     	; 0x6cc <ultrasound_filter+0xc>
 6dc:	80 91 79 00 	lds	r24, 0x0079
 6e0:	90 e0       	ldi	r25, 0x00	; 0
 6e2:	90 93 d0 03 	sts	0x03D0, r25
 6e6:	80 93 cf 03 	sts	0x03CF, r24
 6ea:	10 92 08 01 	sts	0x0108, r1
 6ee:	80 91 08 01 	lds	r24, 0x0108
 6f2:	8f 31       	cpi	r24, 0x1F	; 31
 6f4:	08 f0       	brcs	.+2      	; 0x6f8 <ultrasound_filter+0x38>
 6f6:	4a c0       	rjmp	.+148    	; 0x78c <ultrasound_filter+0xcc>
 6f8:	20 91 79 00 	lds	r18, 0x0079
 6fc:	80 91 09 01 	lds	r24, 0x0109
 700:	90 91 0a 01 	lds	r25, 0x010A
 704:	30 e0       	ldi	r19, 0x00	; 0
 706:	8c 59       	subi	r24, 0x9C	; 156
 708:	9f 4f       	sbci	r25, 0xFF	; 255
 70a:	82 17       	cp	r24, r18
 70c:	93 07       	cpc	r25, r19
 70e:	78 f4       	brcc	.+30     	; 0x72e <ultrasound_filter+0x6e>
 710:	20 91 79 00 	lds	r18, 0x0079
 714:	80 91 09 01 	lds	r24, 0x0109
 718:	90 91 0a 01 	lds	r25, 0x010A
 71c:	26 95       	lsr	r18
 71e:	96 95       	lsr	r25
 720:	87 95       	ror	r24
 722:	82 0f       	add	r24, r18
 724:	91 1d       	adc	r25, r1
 726:	90 93 d0 03 	sts	0x03D0, r25
 72a:	80 93 cf 03 	sts	0x03CF, r24
 72e:	20 91 79 00 	lds	r18, 0x0079
 732:	80 91 09 01 	lds	r24, 0x0109
 736:	90 91 0a 01 	lds	r25, 0x010A
 73a:	30 e0       	ldi	r19, 0x00	; 0
 73c:	84 56       	subi	r24, 0x64	; 100
 73e:	90 40       	sbci	r25, 0x00	; 0
 740:	28 17       	cp	r18, r24
 742:	39 07       	cpc	r19, r25
 744:	78 f4       	brcc	.+30     	; 0x764 <ultrasound_filter+0xa4>
 746:	20 91 79 00 	lds	r18, 0x0079
 74a:	80 91 09 01 	lds	r24, 0x0109
 74e:	90 91 0a 01 	lds	r25, 0x010A
 752:	26 95       	lsr	r18
 754:	96 95       	lsr	r25
 756:	87 95       	ror	r24
 758:	82 0f       	add	r24, r18
 75a:	91 1d       	adc	r25, r1
 75c:	90 93 d0 03 	sts	0x03D0, r25
 760:	80 93 cf 03 	sts	0x03CF, r24
 764:	e0 91 08 01 	lds	r30, 0x0108
 768:	f0 e0       	ldi	r31, 0x00	; 0
 76a:	80 91 cf 03 	lds	r24, 0x03CF
 76e:	90 91 d0 03 	lds	r25, 0x03D0
 772:	ed 52       	subi	r30, 0x2D	; 45
 774:	fc 4f       	sbci	r31, 0xFC	; 252
 776:	80 83       	st	Z, r24
 778:	80 91 08 01 	lds	r24, 0x0108
 77c:	8f 5f       	subi	r24, 0xFF	; 255
 77e:	80 93 08 01 	sts	0x0108, r24
 782:	80 91 08 01 	lds	r24, 0x0108
 786:	8f 31       	cpi	r24, 0x1F	; 31
 788:	08 f4       	brcc	.+2      	; 0x78c <ultrasound_filter+0xcc>
 78a:	b6 cf       	rjmp	.-148    	; 0x6f8 <ultrasound_filter+0x38>
 78c:	10 92 08 01 	sts	0x0108, r1
 790:	80 91 08 01 	lds	r24, 0x0108
 794:	8f 31       	cpi	r24, 0x1F	; 31
 796:	c8 f4       	brcc	.+50     	; 0x7ca <ultrasound_filter+0x10a>
 798:	e0 91 08 01 	lds	r30, 0x0108
 79c:	f0 e0       	ldi	r31, 0x00	; 0
 79e:	ed 52       	subi	r30, 0x2D	; 45
 7a0:	fc 4f       	sbci	r31, 0xFC	; 252
 7a2:	20 81       	ld	r18, Z
 7a4:	80 91 09 01 	lds	r24, 0x0109
 7a8:	90 91 0a 01 	lds	r25, 0x010A
 7ac:	82 0f       	add	r24, r18
 7ae:	91 1d       	adc	r25, r1
 7b0:	90 93 0a 01 	sts	0x010A, r25
 7b4:	80 93 09 01 	sts	0x0109, r24
 7b8:	80 91 08 01 	lds	r24, 0x0108
 7bc:	8f 5f       	subi	r24, 0xFF	; 255
 7be:	80 93 08 01 	sts	0x0108, r24
 7c2:	80 91 08 01 	lds	r24, 0x0108
 7c6:	8f 31       	cpi	r24, 0x1F	; 31
 7c8:	38 f3       	brcs	.-50     	; 0x798 <ultrasound_filter+0xd8>
 7ca:	80 91 09 01 	lds	r24, 0x0109
 7ce:	90 91 0a 01 	lds	r25, 0x010A
 7d2:	6e e1       	ldi	r22, 0x1E	; 30
 7d4:	70 e0       	ldi	r23, 0x00	; 0
 7d6:	0e 94 39 05 	call	0xa72	; 0xa72 <__udivmodhi4>
 7da:	70 93 0a 01 	sts	0x010A, r23
 7de:	60 93 09 01 	sts	0x0109, r22
 7e2:	20 91 09 01 	lds	r18, 0x0109
 7e6:	30 91 0a 01 	lds	r19, 0x010A
 7ea:	c9 01       	movw	r24, r18
 7ec:	08 95       	ret

000007ee <calibrate>:
 7ee:	0e 94 8a 00 	call	0x114	; 0x114 <adc_change>
 7f2:	20 e0       	ldi	r18, 0x00	; 0
 7f4:	30 e0       	ldi	r19, 0x00	; 0
 7f6:	40 e9       	ldi	r20, 0x90	; 144
 7f8:	51 e0       	ldi	r21, 0x01	; 1
 7fa:	ca 01       	movw	r24, r20
 7fc:	01 97       	sbiw	r24, 0x01	; 1
 7fe:	f1 f7       	brne	.-4      	; 0x7fc <calibrate+0xe>
 800:	2f 5f       	subi	r18, 0xFF	; 255
 802:	3f 4f       	sbci	r19, 0xFF	; 255
 804:	28 3c       	cpi	r18, 0xC8	; 200
 806:	31 05       	cpc	r19, r1
 808:	c1 f7       	brne	.-16     	; 0x7fa <calibrate+0xc>
 80a:	80 91 79 00 	lds	r24, 0x0079
 80e:	90 e0       	ldi	r25, 0x00	; 0
 810:	90 93 d0 03 	sts	0x03D0, r25
 814:	80 93 cf 03 	sts	0x03CF, r24
 818:	10 92 08 01 	sts	0x0108, r1
 81c:	80 91 08 01 	lds	r24, 0x0108
 820:	85 31       	cpi	r24, 0x15	; 21
 822:	08 f0       	brcs	.+2      	; 0x826 <calibrate+0x38>
 824:	4a c0       	rjmp	.+148    	; 0x8ba <calibrate+0xcc>
 826:	20 91 79 00 	lds	r18, 0x0079
 82a:	80 91 09 01 	lds	r24, 0x0109
 82e:	90 91 0a 01 	lds	r25, 0x010A
 832:	30 e0       	ldi	r19, 0x00	; 0
 834:	8c 59       	subi	r24, 0x9C	; 156
 836:	9f 4f       	sbci	r25, 0xFF	; 255
 838:	82 17       	cp	r24, r18
 83a:	93 07       	cpc	r25, r19
 83c:	78 f4       	brcc	.+30     	; 0x85c <calibrate+0x6e>
 83e:	20 91 79 00 	lds	r18, 0x0079
 842:	80 91 09 01 	lds	r24, 0x0109
 846:	90 91 0a 01 	lds	r25, 0x010A
 84a:	26 95       	lsr	r18
 84c:	96 95       	lsr	r25
 84e:	87 95       	ror	r24
 850:	82 0f       	add	r24, r18
 852:	91 1d       	adc	r25, r1
 854:	90 93 d0 03 	sts	0x03D0, r25
 858:	80 93 cf 03 	sts	0x03CF, r24
 85c:	20 91 79 00 	lds	r18, 0x0079
 860:	80 91 09 01 	lds	r24, 0x0109
 864:	90 91 0a 01 	lds	r25, 0x010A
 868:	30 e0       	ldi	r19, 0x00	; 0
 86a:	84 56       	subi	r24, 0x64	; 100
 86c:	90 40       	sbci	r25, 0x00	; 0
 86e:	28 17       	cp	r18, r24
 870:	39 07       	cpc	r19, r25
 872:	78 f4       	brcc	.+30     	; 0x892 <calibrate+0xa4>
 874:	20 91 79 00 	lds	r18, 0x0079
 878:	80 91 09 01 	lds	r24, 0x0109
 87c:	90 91 0a 01 	lds	r25, 0x010A
 880:	26 95       	lsr	r18
 882:	96 95       	lsr	r25
 884:	87 95       	ror	r24
 886:	82 0f       	add	r24, r18
 888:	91 1d       	adc	r25, r1
 88a:	90 93 d0 03 	sts	0x03D0, r25
 88e:	80 93 cf 03 	sts	0x03CF, r24
 892:	e0 91 08 01 	lds	r30, 0x0108
 896:	f0 e0       	ldi	r31, 0x00	; 0
 898:	80 91 cf 03 	lds	r24, 0x03CF
 89c:	90 91 d0 03 	lds	r25, 0x03D0
 8a0:	ed 52       	subi	r30, 0x2D	; 45
 8a2:	fc 4f       	sbci	r31, 0xFC	; 252
 8a4:	80 83       	st	Z, r24
 8a6:	80 91 08 01 	lds	r24, 0x0108
 8aa:	8f 5f       	subi	r24, 0xFF	; 255
 8ac:	80 93 08 01 	sts	0x0108, r24
 8b0:	80 91 08 01 	lds	r24, 0x0108
 8b4:	85 31       	cpi	r24, 0x15	; 21
 8b6:	08 f4       	brcc	.+2      	; 0x8ba <calibrate+0xcc>
 8b8:	b6 cf       	rjmp	.-148    	; 0x826 <calibrate+0x38>
 8ba:	10 92 08 01 	sts	0x0108, r1
 8be:	80 91 08 01 	lds	r24, 0x0108
 8c2:	85 31       	cpi	r24, 0x15	; 21
 8c4:	c8 f4       	brcc	.+50     	; 0x8f8 <calibrate+0x10a>
 8c6:	e0 91 08 01 	lds	r30, 0x0108
 8ca:	f0 e0       	ldi	r31, 0x00	; 0
 8cc:	ed 52       	subi	r30, 0x2D	; 45
 8ce:	fc 4f       	sbci	r31, 0xFC	; 252
 8d0:	20 81       	ld	r18, Z
 8d2:	80 91 09 01 	lds	r24, 0x0109
 8d6:	90 91 0a 01 	lds	r25, 0x010A
 8da:	82 0f       	add	r24, r18
 8dc:	91 1d       	adc	r25, r1
 8de:	90 93 0a 01 	sts	0x010A, r25
 8e2:	80 93 09 01 	sts	0x0109, r24
 8e6:	80 91 08 01 	lds	r24, 0x0108
 8ea:	8f 5f       	subi	r24, 0xFF	; 255
 8ec:	80 93 08 01 	sts	0x0108, r24
 8f0:	80 91 08 01 	lds	r24, 0x0108
 8f4:	85 31       	cpi	r24, 0x15	; 21
 8f6:	38 f3       	brcs	.-50     	; 0x8c6 <calibrate+0xd8>
 8f8:	80 91 09 01 	lds	r24, 0x0109
 8fc:	90 91 0a 01 	lds	r25, 0x010A
 900:	62 e1       	ldi	r22, 0x12	; 18
 902:	70 e0       	ldi	r23, 0x00	; 0
 904:	0e 94 39 05 	call	0xa72	; 0xa72 <__udivmodhi4>
 908:	70 93 0a 01 	sts	0x010A, r23
 90c:	60 93 09 01 	sts	0x0109, r22
 910:	80 91 09 01 	lds	r24, 0x0109
 914:	90 91 0a 01 	lds	r25, 0x010A
 918:	90 93 07 01 	sts	0x0107, r25
 91c:	80 93 06 01 	sts	0x0106, r24
 920:	10 92 08 01 	sts	0x0108, r1
 924:	80 91 08 01 	lds	r24, 0x0108
 928:	85 31       	cpi	r24, 0x15	; 21
 92a:	78 f4       	brcc	.+30     	; 0x94a <__stack+0x4b>
 92c:	e0 91 08 01 	lds	r30, 0x0108
 930:	f0 e0       	ldi	r31, 0x00	; 0
 932:	ed 52       	subi	r30, 0x2D	; 45
 934:	fc 4f       	sbci	r31, 0xFC	; 252
 936:	10 82       	st	Z, r1
 938:	80 91 08 01 	lds	r24, 0x0108
 93c:	8f 5f       	subi	r24, 0xFF	; 255
 93e:	80 93 08 01 	sts	0x0108, r24
 942:	80 91 08 01 	lds	r24, 0x0108
 946:	85 31       	cpi	r24, 0x15	; 21
 948:	88 f3       	brcs	.-30     	; 0x92c <__stack+0x2d>
 94a:	08 95       	ret

0000094c <uart_start>:
 94c:	80 91 c1 00 	lds	r24, 0x00C1
 950:	88 61       	ori	r24, 0x18	; 24
 952:	80 93 c1 00 	sts	0x00C1, r24
 956:	80 91 c2 00 	lds	r24, 0x00C2
 95a:	86 60       	ori	r24, 0x06	; 6
 95c:	80 93 c2 00 	sts	0x00C2, r24
 960:	87 e6       	ldi	r24, 0x67	; 103
 962:	80 93 c4 00 	sts	0x00C4, r24
 966:	10 92 c5 00 	sts	0x00C5, r1
 96a:	80 91 c1 00 	lds	r24, 0x00C1
 96e:	80 68       	ori	r24, 0x80	; 128
 970:	80 93 c1 00 	sts	0x00C1, r24
 974:	78 94       	sei
 976:	80 91 c0 00 	lds	r24, 0x00C0
 97a:	85 ff       	sbrs	r24, 5
 97c:	fc cf       	rjmp	.-8      	; 0x976 <uart_start+0x2a>
 97e:	8a e0       	ldi	r24, 0x0A	; 10
 980:	80 93 c6 00 	sts	0x00C6, r24
 984:	80 91 c0 00 	lds	r24, 0x00C0
 988:	85 ff       	sbrs	r24, 5
 98a:	fc cf       	rjmp	.-8      	; 0x984 <uart_start+0x38>
 98c:	8d e0       	ldi	r24, 0x0D	; 13
 98e:	80 93 c6 00 	sts	0x00C6, r24
 992:	08 95       	ret

00000994 <uart_sendint>:
 994:	98 2f       	mov	r25, r24
 996:	80 91 c0 00 	lds	r24, 0x00C0
 99a:	85 ff       	sbrs	r24, 5
 99c:	fc cf       	rjmp	.-8      	; 0x996 <uart_sendint+0x2>
 99e:	90 93 c6 00 	sts	0x00C6, r25
 9a2:	08 95       	ret

000009a4 <uart_sendint16>:
 9a4:	28 2f       	mov	r18, r24
 9a6:	80 91 c0 00 	lds	r24, 0x00C0
 9aa:	85 ff       	sbrs	r24, 5
 9ac:	fc cf       	rjmp	.-8      	; 0x9a6 <uart_sendint16+0x2>
 9ae:	20 93 c6 00 	sts	0x00C6, r18
 9b2:	80 91 c0 00 	lds	r24, 0x00C0
 9b6:	85 ff       	sbrs	r24, 5
 9b8:	fc cf       	rjmp	.-8      	; 0x9b2 <uart_sendint16+0xe>
 9ba:	90 93 c6 00 	sts	0x00C6, r25
 9be:	08 95       	ret

000009c0 <uart_sendchar>:
 9c0:	fc 01       	movw	r30, r24
 9c2:	90 81       	ld	r25, Z
 9c4:	99 23       	and	r25, r25
 9c6:	51 f0       	breq	.+20     	; 0x9dc <uart_sendchar+0x1c>
 9c8:	80 91 c0 00 	lds	r24, 0x00C0
 9cc:	85 ff       	sbrs	r24, 5
 9ce:	fc cf       	rjmp	.-8      	; 0x9c8 <uart_sendchar+0x8>
 9d0:	90 93 c6 00 	sts	0x00C6, r25
 9d4:	31 96       	adiw	r30, 0x01	; 1
 9d6:	90 81       	ld	r25, Z
 9d8:	99 23       	and	r25, r25
 9da:	b1 f7       	brne	.-20     	; 0x9c8 <uart_sendchar+0x8>
 9dc:	08 95       	ret

000009de <uart_get>:
 9de:	80 91 c1 00 	lds	r24, 0x00C1
 9e2:	80 68       	ori	r24, 0x80	; 128
 9e4:	80 93 c1 00 	sts	0x00C1, r24
 9e8:	78 94       	sei
 9ea:	83 b7       	in	r24, 0x33	; 51
 9ec:	81 60       	ori	r24, 0x01	; 1
 9ee:	83 bf       	out	0x33, r24	; 51
 9f0:	88 95       	sleep
 9f2:	83 b7       	in	r24, 0x33	; 51
 9f4:	8e 7f       	andi	r24, 0xFE	; 254
 9f6:	83 bf       	out	0x33, r24	; 51
 9f8:	f8 94       	cli
 9fa:	e0 91 0b 01 	lds	r30, 0x010B
 9fe:	f0 91 0c 01 	lds	r31, 0x010C
 a02:	30 97       	sbiw	r30, 0x00	; 0
 a04:	29 f4       	brne	.+10     	; 0xa10 <uart_get+0x32>
 a06:	80 91 ce 03 	lds	r24, 0x03CE
 a0a:	8d 30       	cpi	r24, 0x0D	; 13
 a0c:	31 f0       	breq	.+12     	; 0xa1a <uart_get+0x3c>
 a0e:	08 95       	ret
 a10:	ee 5e       	subi	r30, 0xEE	; 238
 a12:	fe 4f       	sbci	r31, 0xFE	; 254
 a14:	80 81       	ld	r24, Z
 a16:	8d 30       	cpi	r24, 0x0D	; 13
 a18:	d1 f7       	brne	.-12     	; 0xa0e <uart_get+0x30>
 a1a:	8a e0       	ldi	r24, 0x0A	; 10
 a1c:	08 95       	ret

00000a1e <__vector_18>:
 a1e:	1f 92       	push	r1
 a20:	0f 92       	push	r0
 a22:	0f b6       	in	r0, 0x3f	; 63
 a24:	0f 92       	push	r0
 a26:	11 24       	eor	r1, r1
 a28:	2f 93       	push	r18
 a2a:	8f 93       	push	r24
 a2c:	9f 93       	push	r25
 a2e:	ef 93       	push	r30
 a30:	ff 93       	push	r31
 a32:	80 91 0b 01 	lds	r24, 0x010B
 a36:	90 91 0c 01 	lds	r25, 0x010C
 a3a:	20 91 c6 00 	lds	r18, 0x00C6
 a3e:	fc 01       	movw	r30, r24
 a40:	ed 5e       	subi	r30, 0xED	; 237
 a42:	fe 4f       	sbci	r31, 0xFE	; 254
 a44:	20 83       	st	Z, r18
 a46:	01 96       	adiw	r24, 0x01	; 1
 a48:	90 93 0c 01 	sts	0x010C, r25
 a4c:	80 93 0b 01 	sts	0x010B, r24
 a50:	8c 5b       	subi	r24, 0xBC	; 188
 a52:	92 40       	sbci	r25, 0x02	; 2
 a54:	21 f4       	brne	.+8      	; 0xa5e <__vector_18+0x40>
 a56:	10 92 0c 01 	sts	0x010C, r1
 a5a:	10 92 0b 01 	sts	0x010B, r1
 a5e:	ff 91       	pop	r31
 a60:	ef 91       	pop	r30
 a62:	9f 91       	pop	r25
 a64:	8f 91       	pop	r24
 a66:	2f 91       	pop	r18
 a68:	0f 90       	pop	r0
 a6a:	0f be       	out	0x3f, r0	; 63
 a6c:	0f 90       	pop	r0
 a6e:	1f 90       	pop	r1
 a70:	18 95       	reti

00000a72 <__udivmodhi4>:
 a72:	aa 1b       	sub	r26, r26
 a74:	bb 1b       	sub	r27, r27
 a76:	51 e1       	ldi	r21, 0x11	; 17
 a78:	07 c0       	rjmp	.+14     	; 0xa88 <__udivmodhi4_ep>

00000a7a <__udivmodhi4_loop>:
 a7a:	aa 1f       	adc	r26, r26
 a7c:	bb 1f       	adc	r27, r27
 a7e:	a6 17       	cp	r26, r22
 a80:	b7 07       	cpc	r27, r23
 a82:	10 f0       	brcs	.+4      	; 0xa88 <__udivmodhi4_ep>
 a84:	a6 1b       	sub	r26, r22
 a86:	b7 0b       	sbc	r27, r23

00000a88 <__udivmodhi4_ep>:
 a88:	88 1f       	adc	r24, r24
 a8a:	99 1f       	adc	r25, r25
 a8c:	5a 95       	dec	r21
 a8e:	a9 f7       	brne	.-22     	; 0xa7a <__udivmodhi4_loop>
 a90:	80 95       	com	r24
 a92:	90 95       	com	r25
 a94:	bc 01       	movw	r22, r24
 a96:	cd 01       	movw	r24, r26
 a98:	08 95       	ret

00000a9a <_exit>:
 a9a:	f8 94       	cli

00000a9c <__stop_program>:
 a9c:	ff cf       	rjmp	.-2      	; 0xa9c <__stop_program>
