
bin/Release/BOB_motor.elf:     file format elf32-avr

Sections:
Idx Name          Size      VMA       LMA       File off  Algn
  0 .data         00000108  00800100  00003158  000031cc  2**0
                  CONTENTS, ALLOC, LOAD, DATA
  1 .text         00003158  00000000  00000000  00000074  2**1
                  CONTENTS, ALLOC, LOAD, READONLY, CODE
  2 .bss          00000054  00800208  00003260  000032d4  2**0
                  ALLOC
  3 .stab         000006b4  00000000  00000000  000032d4  2**2
                  CONTENTS, READONLY, DEBUGGING
  4 .stabstr      00000054  00000000  00000000  00003988  2**0
                  CONTENTS, READONLY, DEBUGGING
Disassembly of section .text:

00000000 <__vectors>:
       0:	0c 94 34 00 	jmp	0x68	; 0x68 <__ctors_end>
       4:	0c 94 51 00 	jmp	0xa2	; 0xa2 <__bad_interrupt>
       8:	0c 94 51 00 	jmp	0xa2	; 0xa2 <__bad_interrupt>
       c:	0c 94 51 00 	jmp	0xa2	; 0xa2 <__bad_interrupt>
      10:	0c 94 51 00 	jmp	0xa2	; 0xa2 <__bad_interrupt>
      14:	0c 94 51 00 	jmp	0xa2	; 0xa2 <__bad_interrupt>
      18:	0c 94 51 00 	jmp	0xa2	; 0xa2 <__bad_interrupt>
      1c:	0c 94 51 00 	jmp	0xa2	; 0xa2 <__bad_interrupt>
      20:	0c 94 51 00 	jmp	0xa2	; 0xa2 <__bad_interrupt>
      24:	0c 94 51 00 	jmp	0xa2	; 0xa2 <__bad_interrupt>
      28:	0c 94 51 00 	jmp	0xa2	; 0xa2 <__bad_interrupt>
      2c:	0c 94 51 00 	jmp	0xa2	; 0xa2 <__bad_interrupt>
      30:	0c 94 51 00 	jmp	0xa2	; 0xa2 <__bad_interrupt>
      34:	0c 94 51 00 	jmp	0xa2	; 0xa2 <__bad_interrupt>
      38:	0c 94 51 00 	jmp	0xa2	; 0xa2 <__bad_interrupt>
      3c:	0c 94 51 00 	jmp	0xa2	; 0xa2 <__bad_interrupt>
      40:	0c 94 51 00 	jmp	0xa2	; 0xa2 <__bad_interrupt>
      44:	0c 94 51 00 	jmp	0xa2	; 0xa2 <__bad_interrupt>
      48:	0c 94 51 00 	jmp	0xa2	; 0xa2 <__bad_interrupt>
      4c:	0c 94 51 00 	jmp	0xa2	; 0xa2 <__bad_interrupt>
      50:	0c 94 51 00 	jmp	0xa2	; 0xa2 <__bad_interrupt>
      54:	0c 94 53 00 	jmp	0xa6	; 0xa6 <__vector_21>
      58:	0c 94 51 00 	jmp	0xa2	; 0xa2 <__bad_interrupt>
      5c:	0c 94 51 00 	jmp	0xa2	; 0xa2 <__bad_interrupt>
      60:	0c 94 51 00 	jmp	0xa2	; 0xa2 <__bad_interrupt>
      64:	0c 94 51 00 	jmp	0xa2	; 0xa2 <__bad_interrupt>

00000068 <__ctors_end>:
      68:	11 24       	eor	r1, r1
      6a:	1f be       	out	0x3f, r1	; 63
      6c:	cf ef       	ldi	r28, 0xFF	; 255
      6e:	d8 e0       	ldi	r29, 0x08	; 8
      70:	de bf       	out	0x3e, r29	; 62
      72:	cd bf       	out	0x3d, r28	; 61

00000074 <__do_copy_data>:
      74:	12 e0       	ldi	r17, 0x02	; 2
      76:	a0 e0       	ldi	r26, 0x00	; 0
      78:	b1 e0       	ldi	r27, 0x01	; 1
      7a:	e8 e5       	ldi	r30, 0x58	; 88
      7c:	f1 e3       	ldi	r31, 0x31	; 49
      7e:	02 c0       	rjmp	.+4      	; 0x84 <.do_copy_data_start>

00000080 <.do_copy_data_loop>:
      80:	05 90       	lpm	r0, Z+
      82:	0d 92       	st	X+, r0

00000084 <.do_copy_data_start>:
      84:	a8 30       	cpi	r26, 0x08	; 8
      86:	b1 07       	cpc	r27, r17
      88:	d9 f7       	brne	.-10     	; 0x80 <.do_copy_data_loop>

0000008a <__do_clear_bss>:
      8a:	12 e0       	ldi	r17, 0x02	; 2
      8c:	a8 e0       	ldi	r26, 0x08	; 8
      8e:	b2 e0       	ldi	r27, 0x02	; 2
      90:	01 c0       	rjmp	.+2      	; 0x94 <.do_clear_bss_start>

00000092 <.do_clear_bss_loop>:
      92:	1d 92       	st	X+, r1

00000094 <.do_clear_bss_start>:
      94:	ac 35       	cpi	r26, 0x5C	; 92
      96:	b1 07       	cpc	r27, r17
      98:	e1 f7       	brne	.-8      	; 0x92 <.do_clear_bss_loop>
      9a:	0e 94 bc 02 	call	0x578	; 0x578 <main>
      9e:	0c 94 aa 18 	jmp	0x3154	; 0x3154 <_exit>

000000a2 <__bad_interrupt>:
      a2:	0c 94 00 00 	jmp	0	; 0x0 <__heap_end>

000000a6 <__vector_21>:
      a6:	1f 92       	push	r1
      a8:	0f 92       	push	r0
      aa:	0f b6       	in	r0, 0x3f	; 63
      ac:	0f 92       	push	r0
      ae:	11 24       	eor	r1, r1
      b0:	0f 90       	pop	r0
      b2:	0f be       	out	0x3f, r0	; 63
      b4:	0f 90       	pop	r0
      b6:	1f 90       	pop	r1
      b8:	18 95       	reti

000000ba <adc_start>:
      ba:	aa e7       	ldi	r26, 0x7A	; 122
      bc:	b0 e0       	ldi	r27, 0x00	; 0
      be:	8c 91       	ld	r24, X
      c0:	87 60       	ori	r24, 0x07	; 7
      c2:	8c 93       	st	X, r24
      c4:	ec e7       	ldi	r30, 0x7C	; 124
      c6:	f0 e0       	ldi	r31, 0x00	; 0
      c8:	80 81       	ld	r24, Z
      ca:	80 64       	ori	r24, 0x40	; 64
      cc:	80 83       	st	Z, r24
      ce:	80 81       	ld	r24, Z
      d0:	80 62       	ori	r24, 0x20	; 32
      d2:	80 83       	st	Z, r24
      d4:	8c 91       	ld	r24, X
      d6:	80 62       	ori	r24, 0x20	; 32
      d8:	8c 93       	st	X, r24
      da:	8c 91       	ld	r24, X
      dc:	80 68       	ori	r24, 0x80	; 128
      de:	8c 93       	st	X, r24
      e0:	8c 91       	ld	r24, X
      e2:	88 60       	ori	r24, 0x08	; 8
      e4:	8c 93       	st	X, r24
      e6:	78 94       	sei
      e8:	ea e7       	ldi	r30, 0x7A	; 122
      ea:	f0 e0       	ldi	r31, 0x00	; 0
      ec:	80 81       	ld	r24, Z
      ee:	80 64       	ori	r24, 0x40	; 64
      f0:	80 83       	st	Z, r24
      f2:	08 95       	ret

000000f4 <adc_stop>:
      f4:	ea e7       	ldi	r30, 0x7A	; 122
      f6:	f0 e0       	ldi	r31, 0x00	; 0
      f8:	80 81       	ld	r24, Z
      fa:	8f 7b       	andi	r24, 0xBF	; 191
      fc:	80 83       	st	Z, r24
      fe:	08 95       	ret

00000100 <adc_change>:
     100:	9c 01       	movw	r18, r24
     102:	80 91 7a 00 	lds	r24, 0x007A
     106:	8f 7b       	andi	r24, 0xBF	; 191
     108:	80 93 7a 00 	sts	0x007A, r24
     10c:	24 30       	cpi	r18, 0x04	; 4
     10e:	31 05       	cpc	r19, r1
     110:	09 f4       	brne	.+2      	; 0x114 <adc_change+0x14>
     112:	85 c0       	rjmp	.+266    	; 0x21e <adc_change+0x11e>
     114:	25 30       	cpi	r18, 0x05	; 5
     116:	31 05       	cpc	r19, r1
     118:	0c f1       	brlt	.+66     	; 0x15c <adc_change+0x5c>
     11a:	26 30       	cpi	r18, 0x06	; 6
     11c:	31 05       	cpc	r19, r1
     11e:	09 f4       	brne	.+2      	; 0x122 <adc_change+0x22>
     120:	97 c0       	rjmp	.+302    	; 0x250 <adc_change+0x150>
     122:	26 30       	cpi	r18, 0x06	; 6
     124:	31 05       	cpc	r19, r1
     126:	c4 f5       	brge	.+112    	; 0x198 <adc_change+0x98>
     128:	80 91 7c 00 	lds	r24, 0x007C
     12c:	81 60       	ori	r24, 0x01	; 1
     12e:	80 93 7c 00 	sts	0x007C, r24
     132:	80 91 7c 00 	lds	r24, 0x007C
     136:	8d 7f       	andi	r24, 0xFD	; 253
     138:	80 93 7c 00 	sts	0x007C, r24
     13c:	80 91 7c 00 	lds	r24, 0x007C
     140:	84 60       	ori	r24, 0x04	; 4
     142:	80 93 7c 00 	sts	0x007C, r24
     146:	80 91 7c 00 	lds	r24, 0x007C
     14a:	87 7f       	andi	r24, 0xF7	; 247
     14c:	80 93 7c 00 	sts	0x007C, r24
     150:	80 91 7a 00 	lds	r24, 0x007A
     154:	80 64       	ori	r24, 0x40	; 64
     156:	80 93 7a 00 	sts	0x007A, r24
     15a:	08 95       	ret
     15c:	21 30       	cpi	r18, 0x01	; 1
     15e:	31 05       	cpc	r19, r1
     160:	09 f4       	brne	.+2      	; 0x164 <adc_change+0x64>
     162:	4d c0       	rjmp	.+154    	; 0x1fe <adc_change+0xfe>
     164:	22 30       	cpi	r18, 0x02	; 2
     166:	31 05       	cpc	r19, r1
     168:	6c f1       	brlt	.+90     	; 0x1c4 <adc_change+0xc4>
     16a:	22 30       	cpi	r18, 0x02	; 2
     16c:	31 05       	cpc	r19, r1
     16e:	09 f4       	brne	.+2      	; 0x172 <adc_change+0x72>
     170:	5a c0       	rjmp	.+180    	; 0x226 <adc_change+0x126>
     172:	23 30       	cpi	r18, 0x03	; 3
     174:	31 05       	cpc	r19, r1
     176:	51 f4       	brne	.+20     	; 0x18c <adc_change+0x8c>
     178:	80 91 7c 00 	lds	r24, 0x007C
     17c:	83 60       	ori	r24, 0x03	; 3
     17e:	80 93 7c 00 	sts	0x007C, r24
     182:	80 91 7c 00 	lds	r24, 0x007C
     186:	83 7f       	andi	r24, 0xF3	; 243
     188:	80 93 7c 00 	sts	0x007C, r24
     18c:	80 91 7a 00 	lds	r24, 0x007A
     190:	80 64       	ori	r24, 0x40	; 64
     192:	80 93 7a 00 	sts	0x007A, r24
     196:	08 95       	ret
     198:	27 30       	cpi	r18, 0x07	; 7
     19a:	31 05       	cpc	r19, r1
     19c:	01 f1       	breq	.+64     	; 0x1de <adc_change+0xde>
     19e:	28 30       	cpi	r18, 0x08	; 8
     1a0:	31 05       	cpc	r19, r1
     1a2:	a1 f7       	brne	.-24     	; 0x18c <adc_change+0x8c>
     1a4:	80 91 7c 00 	lds	r24, 0x007C
     1a8:	88 7f       	andi	r24, 0xF8	; 248
     1aa:	80 93 7c 00 	sts	0x007C, r24
     1ae:	80 91 7c 00 	lds	r24, 0x007C
     1b2:	88 60       	ori	r24, 0x08	; 8
     1b4:	80 93 7c 00 	sts	0x007C, r24
     1b8:	80 91 7a 00 	lds	r24, 0x007A
     1bc:	80 64       	ori	r24, 0x40	; 64
     1be:	80 93 7a 00 	sts	0x007A, r24
     1c2:	08 95       	ret
     1c4:	23 2b       	or	r18, r19
     1c6:	11 f7       	brne	.-60     	; 0x18c <adc_change+0x8c>
     1c8:	80 91 7c 00 	lds	r24, 0x007C
     1cc:	80 7f       	andi	r24, 0xF0	; 240
     1ce:	80 93 7c 00 	sts	0x007C, r24
     1d2:	80 91 7a 00 	lds	r24, 0x007A
     1d6:	80 64       	ori	r24, 0x40	; 64
     1d8:	80 93 7a 00 	sts	0x007A, r24
     1dc:	08 95       	ret
     1de:	80 91 7c 00 	lds	r24, 0x007C
     1e2:	87 60       	ori	r24, 0x07	; 7
     1e4:	80 93 7c 00 	sts	0x007C, r24
     1e8:	80 91 7c 00 	lds	r24, 0x007C
     1ec:	87 7f       	andi	r24, 0xF7	; 247
     1ee:	80 93 7c 00 	sts	0x007C, r24
     1f2:	80 91 7a 00 	lds	r24, 0x007A
     1f6:	80 64       	ori	r24, 0x40	; 64
     1f8:	80 93 7a 00 	sts	0x007A, r24
     1fc:	08 95       	ret
     1fe:	80 91 7c 00 	lds	r24, 0x007C
     202:	81 60       	ori	r24, 0x01	; 1
     204:	80 93 7c 00 	sts	0x007C, r24
     208:	80 91 7c 00 	lds	r24, 0x007C
     20c:	81 7f       	andi	r24, 0xF1	; 241
     20e:	80 93 7c 00 	sts	0x007C, r24
     212:	80 91 7a 00 	lds	r24, 0x007A
     216:	80 64       	ori	r24, 0x40	; 64
     218:	80 93 7a 00 	sts	0x007A, r24
     21c:	08 95       	ret
     21e:	80 91 7c 00 	lds	r24, 0x007C
     222:	8c 7f       	andi	r24, 0xFC	; 252
     224:	89 cf       	rjmp	.-238    	; 0x138 <adc_change+0x38>
     226:	80 91 7c 00 	lds	r24, 0x007C
     22a:	8e 7f       	andi	r24, 0xFE	; 254
     22c:	80 93 7c 00 	sts	0x007C, r24
     230:	80 91 7c 00 	lds	r24, 0x007C
     234:	82 60       	ori	r24, 0x02	; 2
     236:	80 93 7c 00 	sts	0x007C, r24
     23a:	80 91 7c 00 	lds	r24, 0x007C
     23e:	83 7f       	andi	r24, 0xF3	; 243
     240:	80 93 7c 00 	sts	0x007C, r24
     244:	80 91 7a 00 	lds	r24, 0x007A
     248:	80 64       	ori	r24, 0x40	; 64
     24a:	80 93 7a 00 	sts	0x007A, r24
     24e:	08 95       	ret
     250:	80 91 7c 00 	lds	r24, 0x007C
     254:	8e 7f       	andi	r24, 0xFE	; 254
     256:	80 93 7c 00 	sts	0x007C, r24
     25a:	80 91 7c 00 	lds	r24, 0x007C
     25e:	86 60       	ori	r24, 0x06	; 6
     260:	80 93 7c 00 	sts	0x007C, r24
     264:	80 91 7c 00 	lds	r24, 0x007C
     268:	87 7f       	andi	r24, 0xF7	; 247
     26a:	80 93 7c 00 	sts	0x007C, r24
     26e:	80 91 7a 00 	lds	r24, 0x007A
     272:	80 64       	ori	r24, 0x40	; 64
     274:	80 93 7a 00 	sts	0x007A, r24
     278:	08 95       	ret

0000027a <oh_crap>:
     27a:	84 e4       	ldi	r24, 0x44	; 68
     27c:	63 e0       	ldi	r22, 0x03	; 3
     27e:	70 e0       	ldi	r23, 0x00	; 0
     280:	40 e0       	ldi	r20, 0x00	; 0
     282:	50 e0       	ldi	r21, 0x00	; 0
     284:	0e 94 87 02 	call	0x50e	; 0x50e <out>
     288:	08 95       	ret

0000028a <all_good>:
     28a:	84 e4       	ldi	r24, 0x44	; 68
     28c:	63 e0       	ldi	r22, 0x03	; 3
     28e:	70 e0       	ldi	r23, 0x00	; 0
     290:	41 e0       	ldi	r20, 0x01	; 1
     292:	50 e0       	ldi	r21, 0x00	; 0
     294:	0e 94 87 02 	call	0x50e	; 0x50e <out>
     298:	08 95       	ret

0000029a <test>:
     29a:	8f ef       	ldi	r24, 0xFF	; 255
     29c:	90 e0       	ldi	r25, 0x00	; 0
     29e:	6a e0       	ldi	r22, 0x0A	; 10
     2a0:	70 e0       	ldi	r23, 0x00	; 0
     2a2:	0e 94 6c 07 	call	0xed8	; 0xed8 <pwm_ramp1A>
     2a6:	20 e0       	ldi	r18, 0x00	; 0
     2a8:	30 e0       	ldi	r19, 0x00	; 0
     2aa:	40 e9       	ldi	r20, 0x90	; 144
     2ac:	51 e0       	ldi	r21, 0x01	; 1
     2ae:	ca 01       	movw	r24, r20
     2b0:	01 97       	sbiw	r24, 0x01	; 1
     2b2:	f1 f7       	brne	.-4      	; 0x2b0 <test+0x16>
     2b4:	2f 5f       	subi	r18, 0xFF	; 255
     2b6:	3f 4f       	sbci	r19, 0xFF	; 255
     2b8:	83 e1       	ldi	r24, 0x13	; 19
     2ba:	28 38       	cpi	r18, 0x88	; 136
     2bc:	38 07       	cpc	r19, r24
     2be:	b9 f7       	brne	.-18     	; 0x2ae <test+0x14>
     2c0:	80 e0       	ldi	r24, 0x00	; 0
     2c2:	90 e0       	ldi	r25, 0x00	; 0
     2c4:	6a e0       	ldi	r22, 0x0A	; 10
     2c6:	70 e0       	ldi	r23, 0x00	; 0
     2c8:	0e 94 6c 07 	call	0xed8	; 0xed8 <pwm_ramp1A>
     2cc:	84 e4       	ldi	r24, 0x44	; 68
     2ce:	64 e0       	ldi	r22, 0x04	; 4
     2d0:	70 e0       	ldi	r23, 0x00	; 0
     2d2:	41 e0       	ldi	r20, 0x01	; 1
     2d4:	50 e0       	ldi	r21, 0x00	; 0
     2d6:	0e 94 87 02 	call	0x50e	; 0x50e <out>
     2da:	8f ef       	ldi	r24, 0xFF	; 255
     2dc:	90 e0       	ldi	r25, 0x00	; 0
     2de:	6a e0       	ldi	r22, 0x0A	; 10
     2e0:	70 e0       	ldi	r23, 0x00	; 0
     2e2:	0e 94 6c 07 	call	0xed8	; 0xed8 <pwm_ramp1A>
     2e6:	20 e0       	ldi	r18, 0x00	; 0
     2e8:	30 e0       	ldi	r19, 0x00	; 0
     2ea:	40 e9       	ldi	r20, 0x90	; 144
     2ec:	51 e0       	ldi	r21, 0x01	; 1
     2ee:	ca 01       	movw	r24, r20
     2f0:	01 97       	sbiw	r24, 0x01	; 1
     2f2:	f1 f7       	brne	.-4      	; 0x2f0 <test+0x56>
     2f4:	2f 5f       	subi	r18, 0xFF	; 255
     2f6:	3f 4f       	sbci	r19, 0xFF	; 255
     2f8:	83 e1       	ldi	r24, 0x13	; 19
     2fa:	28 38       	cpi	r18, 0x88	; 136
     2fc:	38 07       	cpc	r19, r24
     2fe:	b9 f7       	brne	.-18     	; 0x2ee <test+0x54>
     300:	80 e0       	ldi	r24, 0x00	; 0
     302:	90 e0       	ldi	r25, 0x00	; 0
     304:	6a e0       	ldi	r22, 0x0A	; 10
     306:	70 e0       	ldi	r23, 0x00	; 0
     308:	0e 94 6c 07 	call	0xed8	; 0xed8 <pwm_ramp1A>
     30c:	84 e4       	ldi	r24, 0x44	; 68
     30e:	64 e0       	ldi	r22, 0x04	; 4
     310:	70 e0       	ldi	r23, 0x00	; 0
     312:	40 e0       	ldi	r20, 0x00	; 0
     314:	50 e0       	ldi	r21, 0x00	; 0
     316:	0e 94 87 02 	call	0x50e	; 0x50e <out>
     31a:	84 e4       	ldi	r24, 0x44	; 68
     31c:	63 e0       	ldi	r22, 0x03	; 3
     31e:	70 e0       	ldi	r23, 0x00	; 0
     320:	40 e0       	ldi	r20, 0x00	; 0
     322:	50 e0       	ldi	r21, 0x00	; 0
     324:	0e 94 87 02 	call	0x50e	; 0x50e <out>
     328:	20 e0       	ldi	r18, 0x00	; 0
     32a:	30 e0       	ldi	r19, 0x00	; 0
     32c:	40 e9       	ldi	r20, 0x90	; 144
     32e:	51 e0       	ldi	r21, 0x01	; 1
     330:	ca 01       	movw	r24, r20
     332:	01 97       	sbiw	r24, 0x01	; 1
     334:	f1 f7       	brne	.-4      	; 0x332 <test+0x98>
     336:	2f 5f       	subi	r18, 0xFF	; 255
     338:	3f 4f       	sbci	r19, 0xFF	; 255
     33a:	87 e2       	ldi	r24, 0x27	; 39
     33c:	20 31       	cpi	r18, 0x10	; 16
     33e:	38 07       	cpc	r19, r24
     340:	b9 f7       	brne	.-18     	; 0x330 <test+0x96>
     342:	84 e4       	ldi	r24, 0x44	; 68
     344:	63 e0       	ldi	r22, 0x03	; 3
     346:	70 e0       	ldi	r23, 0x00	; 0
     348:	41 e0       	ldi	r20, 0x01	; 1
     34a:	50 e0       	ldi	r21, 0x00	; 0
     34c:	0e 94 87 02 	call	0x50e	; 0x50e <out>
     350:	8f ef       	ldi	r24, 0xFF	; 255
     352:	90 e0       	ldi	r25, 0x00	; 0
     354:	0e 94 62 07 	call	0xec4	; 0xec4 <pwm1B>
     358:	20 e0       	ldi	r18, 0x00	; 0
     35a:	30 e0       	ldi	r19, 0x00	; 0
     35c:	40 e9       	ldi	r20, 0x90	; 144
     35e:	51 e0       	ldi	r21, 0x01	; 1
     360:	ca 01       	movw	r24, r20
     362:	01 97       	sbiw	r24, 0x01	; 1
     364:	f1 f7       	brne	.-4      	; 0x362 <test+0xc8>
     366:	2f 5f       	subi	r18, 0xFF	; 255
     368:	3f 4f       	sbci	r19, 0xFF	; 255
     36a:	83 e1       	ldi	r24, 0x13	; 19
     36c:	28 38       	cpi	r18, 0x88	; 136
     36e:	38 07       	cpc	r19, r24
     370:	b9 f7       	brne	.-18     	; 0x360 <test+0xc6>
     372:	80 e0       	ldi	r24, 0x00	; 0
     374:	90 e0       	ldi	r25, 0x00	; 0
     376:	0e 94 62 07 	call	0xec4	; 0xec4 <pwm1B>
     37a:	84 e4       	ldi	r24, 0x44	; 68
     37c:	65 e0       	ldi	r22, 0x05	; 5
     37e:	70 e0       	ldi	r23, 0x00	; 0
     380:	41 e0       	ldi	r20, 0x01	; 1
     382:	50 e0       	ldi	r21, 0x00	; 0
     384:	0e 94 87 02 	call	0x50e	; 0x50e <out>
     388:	20 e0       	ldi	r18, 0x00	; 0
     38a:	30 e0       	ldi	r19, 0x00	; 0
     38c:	40 e9       	ldi	r20, 0x90	; 144
     38e:	51 e0       	ldi	r21, 0x01	; 1
     390:	ca 01       	movw	r24, r20
     392:	01 97       	sbiw	r24, 0x01	; 1
     394:	f1 f7       	brne	.-4      	; 0x392 <test+0xf8>
     396:	2f 5f       	subi	r18, 0xFF	; 255
     398:	3f 4f       	sbci	r19, 0xFF	; 255
     39a:	83 e1       	ldi	r24, 0x13	; 19
     39c:	28 38       	cpi	r18, 0x88	; 136
     39e:	38 07       	cpc	r19, r24
     3a0:	b9 f7       	brne	.-18     	; 0x390 <test+0xf6>
     3a2:	8f ef       	ldi	r24, 0xFF	; 255
     3a4:	90 e0       	ldi	r25, 0x00	; 0
     3a6:	0e 94 62 07 	call	0xec4	; 0xec4 <pwm1B>
     3aa:	20 e0       	ldi	r18, 0x00	; 0
     3ac:	30 e0       	ldi	r19, 0x00	; 0
     3ae:	40 e9       	ldi	r20, 0x90	; 144
     3b0:	51 e0       	ldi	r21, 0x01	; 1
     3b2:	ca 01       	movw	r24, r20
     3b4:	01 97       	sbiw	r24, 0x01	; 1
     3b6:	f1 f7       	brne	.-4      	; 0x3b4 <test+0x11a>
     3b8:	2f 5f       	subi	r18, 0xFF	; 255
     3ba:	3f 4f       	sbci	r19, 0xFF	; 255
     3bc:	83 e1       	ldi	r24, 0x13	; 19
     3be:	28 38       	cpi	r18, 0x88	; 136
     3c0:	38 07       	cpc	r19, r24
     3c2:	b9 f7       	brne	.-18     	; 0x3b2 <test+0x118>
     3c4:	80 e0       	ldi	r24, 0x00	; 0
     3c6:	90 e0       	ldi	r25, 0x00	; 0
     3c8:	0e 94 62 07 	call	0xec4	; 0xec4 <pwm1B>
     3cc:	84 e4       	ldi	r24, 0x44	; 68
     3ce:	65 e0       	ldi	r22, 0x05	; 5
     3d0:	70 e0       	ldi	r23, 0x00	; 0
     3d2:	40 e0       	ldi	r20, 0x00	; 0
     3d4:	50 e0       	ldi	r21, 0x00	; 0
     3d6:	0e 94 87 02 	call	0x50e	; 0x50e <out>
     3da:	08 95       	ret

000003dc <bios>:
     3dc:	52 9a       	sbi	0x0a, 2	; 10
     3de:	53 9a       	sbi	0x0a, 3	; 10
     3e0:	54 9a       	sbi	0x0a, 4	; 10
     3e2:	55 9a       	sbi	0x0a, 5	; 10
     3e4:	84 e4       	ldi	r24, 0x44	; 68
     3e6:	62 e0       	ldi	r22, 0x02	; 2
     3e8:	70 e0       	ldi	r23, 0x00	; 0
     3ea:	41 e0       	ldi	r20, 0x01	; 1
     3ec:	50 e0       	ldi	r21, 0x00	; 0
     3ee:	0e 94 87 02 	call	0x50e	; 0x50e <out>
     3f2:	0e 94 cb 02 	call	0x596	; 0x596 <pwm_setup_all>
     3f6:	0e 94 5d 00 	call	0xba	; 0xba <adc_start>
     3fa:	0e 94 bb 10 	call	0x2176	; 0x2176 <calibrate>
     3fe:	84 e4       	ldi	r24, 0x44	; 68
     400:	63 e0       	ldi	r22, 0x03	; 3
     402:	70 e0       	ldi	r23, 0x00	; 0
     404:	41 e0       	ldi	r20, 0x01	; 1
     406:	50 e0       	ldi	r21, 0x00	; 0
     408:	0e 94 87 02 	call	0x50e	; 0x50e <out>
     40c:	08 95       	ret

0000040e <error>:
     40e:	81 30       	cpi	r24, 0x01	; 1
     410:	91 05       	cpc	r25, r1
     412:	09 f4       	brne	.+2      	; 0x416 <error+0x8>
     414:	3b c0       	rjmp	.+118    	; 0x48c <error+0x7e>
     416:	82 30       	cpi	r24, 0x02	; 2
     418:	91 05       	cpc	r25, r1
     41a:	59 f1       	breq	.+86     	; 0x472 <error+0x64>
     41c:	89 2b       	or	r24, r25
     41e:	a9 f5       	brne	.+106    	; 0x48a <error+0x7c>
     420:	84 e4       	ldi	r24, 0x44	; 68
     422:	63 e0       	ldi	r22, 0x03	; 3
     424:	70 e0       	ldi	r23, 0x00	; 0
     426:	41 e0       	ldi	r20, 0x01	; 1
     428:	50 e0       	ldi	r21, 0x00	; 0
     42a:	0e 94 87 02 	call	0x50e	; 0x50e <out>
     42e:	20 e0       	ldi	r18, 0x00	; 0
     430:	30 e0       	ldi	r19, 0x00	; 0
     432:	40 e9       	ldi	r20, 0x90	; 144
     434:	51 e0       	ldi	r21, 0x01	; 1
     436:	ca 01       	movw	r24, r20
     438:	01 97       	sbiw	r24, 0x01	; 1
     43a:	f1 f7       	brne	.-4      	; 0x438 <error+0x2a>
     43c:	2f 5f       	subi	r18, 0xFF	; 255
     43e:	3f 4f       	sbci	r19, 0xFF	; 255
     440:	83 e1       	ldi	r24, 0x13	; 19
     442:	28 38       	cpi	r18, 0x88	; 136
     444:	38 07       	cpc	r19, r24
     446:	b9 f7       	brne	.-18     	; 0x436 <error+0x28>
     448:	84 e4       	ldi	r24, 0x44	; 68
     44a:	63 e0       	ldi	r22, 0x03	; 3
     44c:	70 e0       	ldi	r23, 0x00	; 0
     44e:	40 e0       	ldi	r20, 0x00	; 0
     450:	50 e0       	ldi	r21, 0x00	; 0
     452:	0e 94 87 02 	call	0x50e	; 0x50e <out>
     456:	20 e0       	ldi	r18, 0x00	; 0
     458:	30 e0       	ldi	r19, 0x00	; 0
     45a:	40 e9       	ldi	r20, 0x90	; 144
     45c:	51 e0       	ldi	r21, 0x01	; 1
     45e:	ca 01       	movw	r24, r20
     460:	01 97       	sbiw	r24, 0x01	; 1
     462:	f1 f7       	brne	.-4      	; 0x460 <error+0x52>
     464:	2f 5f       	subi	r18, 0xFF	; 255
     466:	3f 4f       	sbci	r19, 0xFF	; 255
     468:	83 e1       	ldi	r24, 0x13	; 19
     46a:	28 38       	cpi	r18, 0x88	; 136
     46c:	38 07       	cpc	r19, r24
     46e:	b9 f7       	brne	.-18     	; 0x45e <error+0x50>
     470:	08 95       	ret
     472:	8f ef       	ldi	r24, 0xFF	; 255
     474:	90 e0       	ldi	r25, 0x00	; 0
     476:	62 e3       	ldi	r22, 0x32	; 50
     478:	70 e0       	ldi	r23, 0x00	; 0
     47a:	0e 94 a7 0d 	call	0x1b4e	; 0x1b4e <pwm_ramp2B>
     47e:	80 e0       	ldi	r24, 0x00	; 0
     480:	90 e0       	ldi	r25, 0x00	; 0
     482:	6a e0       	ldi	r22, 0x0A	; 10
     484:	70 e0       	ldi	r23, 0x00	; 0
     486:	0e 94 a7 0d 	call	0x1b4e	; 0x1b4e <pwm_ramp2B>
     48a:	08 95       	ret
     48c:	8f ef       	ldi	r24, 0xFF	; 255
     48e:	90 e0       	ldi	r25, 0x00	; 0
     490:	6a e0       	ldi	r22, 0x0A	; 10
     492:	70 e0       	ldi	r23, 0x00	; 0
     494:	0e 94 a7 0d 	call	0x1b4e	; 0x1b4e <pwm_ramp2B>
     498:	81 e0       	ldi	r24, 0x01	; 1
     49a:	90 e0       	ldi	r25, 0x00	; 0
     49c:	6a e0       	ldi	r22, 0x0A	; 10
     49e:	70 e0       	ldi	r23, 0x00	; 0
     4a0:	0e 94 a7 0d 	call	0x1b4e	; 0x1b4e <pwm_ramp2B>
     4a4:	08 95       	ret

000004a6 <portB_out>:
     4a6:	38 2f       	mov	r19, r24
     4a8:	67 2b       	or	r22, r23
     4aa:	59 f0       	breq	.+22     	; 0x4c2 <portB_out+0x1c>
     4ac:	25 b1       	in	r18, 0x05	; 5
     4ae:	81 e0       	ldi	r24, 0x01	; 1
     4b0:	90 e0       	ldi	r25, 0x00	; 0
     4b2:	02 c0       	rjmp	.+4      	; 0x4b8 <portB_out+0x12>
     4b4:	88 0f       	add	r24, r24
     4b6:	99 1f       	adc	r25, r25
     4b8:	3a 95       	dec	r19
     4ba:	e2 f7       	brpl	.-8      	; 0x4b4 <portB_out+0xe>
     4bc:	28 2b       	or	r18, r24
     4be:	25 b9       	out	0x05, r18	; 5
     4c0:	08 95       	ret
     4c2:	25 b1       	in	r18, 0x05	; 5
     4c4:	81 e0       	ldi	r24, 0x01	; 1
     4c6:	90 e0       	ldi	r25, 0x00	; 0
     4c8:	02 c0       	rjmp	.+4      	; 0x4ce <portB_out+0x28>
     4ca:	88 0f       	add	r24, r24
     4cc:	99 1f       	adc	r25, r25
     4ce:	3a 95       	dec	r19
     4d0:	e2 f7       	brpl	.-8      	; 0x4ca <portB_out+0x24>
     4d2:	80 95       	com	r24
     4d4:	82 23       	and	r24, r18
     4d6:	85 b9       	out	0x05, r24	; 5
     4d8:	08 95       	ret

000004da <portD_out>:
     4da:	38 2f       	mov	r19, r24
     4dc:	67 2b       	or	r22, r23
     4de:	59 f0       	breq	.+22     	; 0x4f6 <portD_out+0x1c>
     4e0:	2b b1       	in	r18, 0x0b	; 11
     4e2:	81 e0       	ldi	r24, 0x01	; 1
     4e4:	90 e0       	ldi	r25, 0x00	; 0
     4e6:	02 c0       	rjmp	.+4      	; 0x4ec <portD_out+0x12>
     4e8:	88 0f       	add	r24, r24
     4ea:	99 1f       	adc	r25, r25
     4ec:	3a 95       	dec	r19
     4ee:	e2 f7       	brpl	.-8      	; 0x4e8 <portD_out+0xe>
     4f0:	28 2b       	or	r18, r24
     4f2:	2b b9       	out	0x0b, r18	; 11
     4f4:	08 95       	ret
     4f6:	2b b1       	in	r18, 0x0b	; 11
     4f8:	81 e0       	ldi	r24, 0x01	; 1
     4fa:	90 e0       	ldi	r25, 0x00	; 0
     4fc:	02 c0       	rjmp	.+4      	; 0x502 <portD_out+0x28>
     4fe:	88 0f       	add	r24, r24
     500:	99 1f       	adc	r25, r25
     502:	3a 95       	dec	r19
     504:	e2 f7       	brpl	.-8      	; 0x4fe <portD_out+0x24>
     506:	80 95       	com	r24
     508:	82 23       	and	r24, r18
     50a:	8b b9       	out	0x0b, r24	; 11
     50c:	08 95       	ret

0000050e <out>:
     50e:	82 34       	cpi	r24, 0x42	; 66
     510:	91 f0       	breq	.+36     	; 0x536 <out+0x28>
     512:	84 34       	cpi	r24, 0x44	; 68
     514:	09 f0       	breq	.+2      	; 0x518 <out+0xa>
     516:	08 95       	ret
     518:	41 30       	cpi	r20, 0x01	; 1
     51a:	51 05       	cpc	r21, r1
     51c:	d9 f0       	breq	.+54     	; 0x554 <out+0x46>
     51e:	2b b1       	in	r18, 0x0b	; 11
     520:	81 e0       	ldi	r24, 0x01	; 1
     522:	90 e0       	ldi	r25, 0x00	; 0
     524:	02 c0       	rjmp	.+4      	; 0x52a <out+0x1c>
     526:	88 0f       	add	r24, r24
     528:	99 1f       	adc	r25, r25
     52a:	6a 95       	dec	r22
     52c:	e2 f7       	brpl	.-8      	; 0x526 <out+0x18>
     52e:	80 95       	com	r24
     530:	82 23       	and	r24, r18
     532:	8b b9       	out	0x0b, r24	; 11
     534:	08 95       	ret
     536:	41 30       	cpi	r20, 0x01	; 1
     538:	51 05       	cpc	r21, r1
     53a:	a9 f0       	breq	.+42     	; 0x566 <out+0x58>
     53c:	25 b1       	in	r18, 0x05	; 5
     53e:	81 e0       	ldi	r24, 0x01	; 1
     540:	90 e0       	ldi	r25, 0x00	; 0
     542:	02 c0       	rjmp	.+4      	; 0x548 <out+0x3a>
     544:	88 0f       	add	r24, r24
     546:	99 1f       	adc	r25, r25
     548:	6a 95       	dec	r22
     54a:	e2 f7       	brpl	.-8      	; 0x544 <out+0x36>
     54c:	80 95       	com	r24
     54e:	82 23       	and	r24, r18
     550:	85 b9       	out	0x05, r24	; 5
     552:	08 95       	ret
     554:	8b b1       	in	r24, 0x0b	; 11
     556:	02 c0       	rjmp	.+4      	; 0x55c <out+0x4e>
     558:	44 0f       	add	r20, r20
     55a:	55 1f       	adc	r21, r21
     55c:	6a 95       	dec	r22
     55e:	e2 f7       	brpl	.-8      	; 0x558 <out+0x4a>
     560:	84 2b       	or	r24, r20
     562:	8b b9       	out	0x0b, r24	; 11
     564:	08 95       	ret
     566:	85 b1       	in	r24, 0x05	; 5
     568:	02 c0       	rjmp	.+4      	; 0x56e <out+0x60>
     56a:	44 0f       	add	r20, r20
     56c:	55 1f       	adc	r21, r21
     56e:	6a 95       	dec	r22
     570:	e2 f7       	brpl	.-8      	; 0x56a <out+0x5c>
     572:	84 2b       	or	r24, r20
     574:	85 b9       	out	0x05, r24	; 5
     576:	08 95       	ret

00000578 <main>:
     578:	0e 94 ee 01 	call	0x3dc	; 0x3dc <bios>
     57c:	8f ef       	ldi	r24, 0xFF	; 255
     57e:	90 e0       	ldi	r25, 0x00	; 0
     580:	6a e0       	ldi	r22, 0x0A	; 10
     582:	70 e0       	ldi	r23, 0x00	; 0
     584:	0e 94 6c 07 	call	0xed8	; 0xed8 <pwm_ramp1A>
     588:	0e 94 94 10 	call	0x2128	; 0x2128 <can_turn_left>
     58c:	81 30       	cpi	r24, 0x01	; 1
     58e:	e1 f7       	brne	.-8      	; 0x588 <main+0x10>
     590:	0e 94 b9 11 	call	0x2372	; 0x2372 <turn_left>
     594:	f9 cf       	rjmp	.-14     	; 0x588 <main+0x10>

00000596 <pwm_setup_all>:
     596:	85 b5       	in	r24, 0x25	; 37
     598:	83 60       	ori	r24, 0x03	; 3
     59a:	85 bd       	out	0x25, r24	; 37
     59c:	84 b5       	in	r24, 0x24	; 36
     59e:	81 60       	ori	r24, 0x01	; 1
     5a0:	84 bd       	out	0x24, r24	; 36
     5a2:	55 9a       	sbi	0x0a, 5	; 10
     5a4:	56 9a       	sbi	0x0a, 6	; 10
     5a6:	10 92 59 02 	sts	0x0259, r1
     5aa:	10 92 58 02 	sts	0x0258, r1
     5ae:	10 92 57 02 	sts	0x0257, r1
     5b2:	10 92 56 02 	sts	0x0256, r1
     5b6:	10 92 19 02 	sts	0x0219, r1
     5ba:	10 92 18 02 	sts	0x0218, r1
     5be:	10 92 15 02 	sts	0x0215, r1
     5c2:	10 92 14 02 	sts	0x0214, r1
     5c6:	10 92 21 02 	sts	0x0221, r1
     5ca:	10 92 20 02 	sts	0x0220, r1
     5ce:	10 92 11 02 	sts	0x0211, r1
     5d2:	10 92 10 02 	sts	0x0210, r1
     5d6:	e1 e8       	ldi	r30, 0x81	; 129
     5d8:	f0 e0       	ldi	r31, 0x00	; 0
     5da:	80 81       	ld	r24, Z
     5dc:	83 60       	ori	r24, 0x03	; 3
     5de:	80 83       	st	Z, r24
     5e0:	e0 e8       	ldi	r30, 0x80	; 128
     5e2:	f0 e0       	ldi	r31, 0x00	; 0
     5e4:	80 81       	ld	r24, Z
     5e6:	81 60       	ori	r24, 0x01	; 1
     5e8:	80 83       	st	Z, r24
     5ea:	21 9a       	sbi	0x04, 1	; 4
     5ec:	22 9a       	sbi	0x04, 2	; 4
     5ee:	10 92 0b 02 	sts	0x020B, r1
     5f2:	10 92 0a 02 	sts	0x020A, r1
     5f6:	10 92 13 02 	sts	0x0213, r1
     5fa:	10 92 12 02 	sts	0x0212, r1
     5fe:	10 92 2d 02 	sts	0x022D, r1
     602:	10 92 2c 02 	sts	0x022C, r1
     606:	10 92 1f 02 	sts	0x021F, r1
     60a:	10 92 1e 02 	sts	0x021E, r1
     60e:	10 92 29 02 	sts	0x0229, r1
     612:	10 92 28 02 	sts	0x0228, r1
     616:	10 92 1b 02 	sts	0x021B, r1
     61a:	10 92 1a 02 	sts	0x021A, r1
     61e:	e1 eb       	ldi	r30, 0xB1	; 177
     620:	f0 e0       	ldi	r31, 0x00	; 0
     622:	80 81       	ld	r24, Z
     624:	84 60       	ori	r24, 0x04	; 4
     626:	80 83       	st	Z, r24
     628:	e0 eb       	ldi	r30, 0xB0	; 176
     62a:	f0 e0       	ldi	r31, 0x00	; 0
     62c:	80 81       	ld	r24, Z
     62e:	81 60       	ori	r24, 0x01	; 1
     630:	80 83       	st	Z, r24
     632:	53 9a       	sbi	0x0a, 3	; 10
     634:	23 9a       	sbi	0x04, 3	; 4
     636:	10 92 17 02 	sts	0x0217, r1
     63a:	10 92 16 02 	sts	0x0216, r1
     63e:	10 92 25 02 	sts	0x0225, r1
     642:	10 92 24 02 	sts	0x0224, r1
     646:	10 92 2b 02 	sts	0x022B, r1
     64a:	10 92 2a 02 	sts	0x022A, r1
     64e:	10 92 1d 02 	sts	0x021D, r1
     652:	10 92 1c 02 	sts	0x021C, r1
     656:	10 92 27 02 	sts	0x0227, r1
     65a:	10 92 26 02 	sts	0x0226, r1
     65e:	10 92 5b 02 	sts	0x025B, r1
     662:	10 92 5a 02 	sts	0x025A, r1
     666:	08 95       	ret

00000668 <pwm_setup0>:
     668:	85 b5       	in	r24, 0x25	; 37
     66a:	83 60       	ori	r24, 0x03	; 3
     66c:	85 bd       	out	0x25, r24	; 37
     66e:	84 b5       	in	r24, 0x24	; 36
     670:	81 60       	ori	r24, 0x01	; 1
     672:	84 bd       	out	0x24, r24	; 36
     674:	55 9a       	sbi	0x0a, 5	; 10
     676:	56 9a       	sbi	0x0a, 6	; 10
     678:	10 92 59 02 	sts	0x0259, r1
     67c:	10 92 58 02 	sts	0x0258, r1
     680:	10 92 57 02 	sts	0x0257, r1
     684:	10 92 56 02 	sts	0x0256, r1
     688:	10 92 19 02 	sts	0x0219, r1
     68c:	10 92 18 02 	sts	0x0218, r1
     690:	10 92 15 02 	sts	0x0215, r1
     694:	10 92 14 02 	sts	0x0214, r1
     698:	10 92 21 02 	sts	0x0221, r1
     69c:	10 92 20 02 	sts	0x0220, r1
     6a0:	10 92 11 02 	sts	0x0211, r1
     6a4:	10 92 10 02 	sts	0x0210, r1
     6a8:	08 95       	ret

000006aa <pwm0A>:
     6aa:	94 b5       	in	r25, 0x24	; 36
     6ac:	90 68       	ori	r25, 0x80	; 128
     6ae:	94 bd       	out	0x24, r25	; 36
     6b0:	87 bd       	out	0x27, r24	; 39
     6b2:	08 95       	ret

000006b4 <pwm0B>:
     6b4:	94 b5       	in	r25, 0x24	; 36
     6b6:	90 62       	ori	r25, 0x20	; 32
     6b8:	94 bd       	out	0x24, r25	; 36
     6ba:	88 bd       	out	0x28, r24	; 40
     6bc:	08 95       	ret

000006be <pwm_ramp0A>:
     6be:	6f 92       	push	r6
     6c0:	7f 92       	push	r7
     6c2:	8f 92       	push	r8
     6c4:	9f 92       	push	r9
     6c6:	af 92       	push	r10
     6c8:	bf 92       	push	r11
     6ca:	cf 92       	push	r12
     6cc:	df 92       	push	r13
     6ce:	ef 92       	push	r14
     6d0:	ff 92       	push	r15
     6d2:	0f 93       	push	r16
     6d4:	1f 93       	push	r17
     6d6:	cf 93       	push	r28
     6d8:	df 93       	push	r29
     6da:	6c 01       	movw	r12, r24
     6dc:	00 97       	sbiw	r24, 0x00	; 0
     6de:	09 f4       	brne	.+2      	; 0x6e2 <pwm_ramp0A+0x24>
     6e0:	d0 c0       	rjmp	.+416    	; 0x882 <pwm_ramp0A+0x1c4>
     6e2:	80 91 2c 02 	lds	r24, 0x022C
     6e6:	90 91 2d 02 	lds	r25, 0x022D
     6ea:	8c 15       	cp	r24, r12
     6ec:	9d 05       	cpc	r25, r13
     6ee:	08 f0       	brcs	.+2      	; 0x6f2 <pwm_ramp0A+0x34>
     6f0:	61 c0       	rjmp	.+194    	; 0x7b4 <pwm_ramp0A+0xf6>
     6f2:	84 b5       	in	r24, 0x24	; 36
     6f4:	80 68       	ori	r24, 0x80	; 128
     6f6:	84 bd       	out	0x24, r24	; 36
     6f8:	c0 91 18 02 	lds	r28, 0x0218
     6fc:	d0 91 19 02 	lds	r29, 0x0219
     700:	cc 16       	cp	r12, r28
     702:	dd 06       	cpc	r13, r29
     704:	08 f4       	brcc	.+2      	; 0x708 <pwm_ramp0A+0x4a>
     706:	3f c0       	rjmp	.+126    	; 0x786 <pwm_ramp0A+0xc8>
     708:	80 e0       	ldi	r24, 0x00	; 0
     70a:	90 e0       	ldi	r25, 0x00	; 0
     70c:	0e 94 de 15 	call	0x2bbc	; 0x2bbc <__floatunsisf>
     710:	3b 01       	movw	r6, r22
     712:	4c 01       	movw	r8, r24
     714:	20 e0       	ldi	r18, 0x00	; 0
     716:	30 e0       	ldi	r19, 0x00	; 0
     718:	4a e7       	ldi	r20, 0x7A	; 122
     71a:	55 e4       	ldi	r21, 0x45	; 69
     71c:	0e 94 00 14 	call	0x2800	; 0x2800 <__mulsf3>
     720:	7b 01       	movw	r14, r22
     722:	8c 01       	movw	r16, r24
     724:	90 e9       	ldi	r25, 0x90	; 144
     726:	a9 2e       	mov	r10, r25
     728:	91 e0       	ldi	r25, 0x01	; 1
     72a:	b9 2e       	mov	r11, r25
     72c:	c7 bd       	out	0x27, r28	; 39
     72e:	21 96       	adiw	r28, 0x01	; 1
     730:	c8 01       	movw	r24, r16
     732:	b7 01       	movw	r22, r14
     734:	20 e0       	ldi	r18, 0x00	; 0
     736:	30 e0       	ldi	r19, 0x00	; 0
     738:	40 e8       	ldi	r20, 0x80	; 128
     73a:	5f e3       	ldi	r21, 0x3F	; 63
     73c:	0e 94 5a 15 	call	0x2ab4	; 0x2ab4 <__ltsf2>
     740:	88 23       	and	r24, r24
     742:	0c f4       	brge	.+2      	; 0x746 <pwm_ramp0A+0x88>
     744:	9b c0       	rjmp	.+310    	; 0x87c <pwm_ramp0A+0x1be>
     746:	c8 01       	movw	r24, r16
     748:	b7 01       	movw	r22, r14
     74a:	20 e0       	ldi	r18, 0x00	; 0
     74c:	3f ef       	ldi	r19, 0xFF	; 255
     74e:	4f e7       	ldi	r20, 0x7F	; 127
     750:	57 e4       	ldi	r21, 0x47	; 71
     752:	0e 94 fa 14 	call	0x29f4	; 0x29f4 <__gtsf2>
     756:	18 16       	cp	r1, r24
     758:	0c f0       	brlt	.+2      	; 0x75c <pwm_ramp0A+0x9e>
     75a:	75 c0       	rjmp	.+234    	; 0x846 <pwm_ramp0A+0x188>
     75c:	c4 01       	movw	r24, r8
     75e:	b3 01       	movw	r22, r6
     760:	20 e0       	ldi	r18, 0x00	; 0
     762:	30 e0       	ldi	r19, 0x00	; 0
     764:	40 e2       	ldi	r20, 0x20	; 32
     766:	51 e4       	ldi	r21, 0x41	; 65
     768:	0e 94 00 14 	call	0x2800	; 0x2800 <__mulsf3>
     76c:	0e 94 2a 12 	call	0x2454	; 0x2454 <__fixunssfsi>
     770:	cb 01       	movw	r24, r22
     772:	67 2b       	or	r22, r23
     774:	29 f0       	breq	.+10     	; 0x780 <pwm_ramp0A+0xc2>
     776:	f5 01       	movw	r30, r10
     778:	31 97       	sbiw	r30, 0x01	; 1
     77a:	f1 f7       	brne	.-4      	; 0x778 <pwm_ramp0A+0xba>
     77c:	01 97       	sbiw	r24, 0x01	; 1
     77e:	d9 f7       	brne	.-10     	; 0x776 <pwm_ramp0A+0xb8>
     780:	cc 16       	cp	r12, r28
     782:	dd 06       	cpc	r13, r29
     784:	98 f6       	brcc	.-90     	; 0x72c <pwm_ramp0A+0x6e>
     786:	d0 92 19 02 	sts	0x0219, r13
     78a:	c0 92 18 02 	sts	0x0218, r12
     78e:	d0 92 19 02 	sts	0x0219, r13
     792:	c0 92 18 02 	sts	0x0218, r12
     796:	df 91       	pop	r29
     798:	cf 91       	pop	r28
     79a:	1f 91       	pop	r17
     79c:	0f 91       	pop	r16
     79e:	ff 90       	pop	r15
     7a0:	ef 90       	pop	r14
     7a2:	df 90       	pop	r13
     7a4:	cf 90       	pop	r12
     7a6:	bf 90       	pop	r11
     7a8:	af 90       	pop	r10
     7aa:	9f 90       	pop	r9
     7ac:	8f 90       	pop	r8
     7ae:	7f 90       	pop	r7
     7b0:	6f 90       	pop	r6
     7b2:	08 95       	ret
     7b4:	84 b5       	in	r24, 0x24	; 36
     7b6:	80 68       	ori	r24, 0x80	; 128
     7b8:	84 bd       	out	0x24, r24	; 36
     7ba:	c0 91 18 02 	lds	r28, 0x0218
     7be:	d0 91 19 02 	lds	r29, 0x0219
     7c2:	cc 15       	cp	r28, r12
     7c4:	dd 05       	cpc	r29, r13
     7c6:	18 f3       	brcs	.-58     	; 0x78e <pwm_ramp0A+0xd0>
     7c8:	80 e0       	ldi	r24, 0x00	; 0
     7ca:	90 e0       	ldi	r25, 0x00	; 0
     7cc:	0e 94 de 15 	call	0x2bbc	; 0x2bbc <__floatunsisf>
     7d0:	3b 01       	movw	r6, r22
     7d2:	4c 01       	movw	r8, r24
     7d4:	20 e0       	ldi	r18, 0x00	; 0
     7d6:	30 e0       	ldi	r19, 0x00	; 0
     7d8:	4a e7       	ldi	r20, 0x7A	; 122
     7da:	55 e4       	ldi	r21, 0x45	; 69
     7dc:	0e 94 00 14 	call	0x2800	; 0x2800 <__mulsf3>
     7e0:	7b 01       	movw	r14, r22
     7e2:	8c 01       	movw	r16, r24
     7e4:	80 e9       	ldi	r24, 0x90	; 144
     7e6:	a8 2e       	mov	r10, r24
     7e8:	81 e0       	ldi	r24, 0x01	; 1
     7ea:	b8 2e       	mov	r11, r24
     7ec:	c7 bd       	out	0x27, r28	; 39
     7ee:	21 97       	sbiw	r28, 0x01	; 1
     7f0:	c8 01       	movw	r24, r16
     7f2:	b7 01       	movw	r22, r14
     7f4:	20 e0       	ldi	r18, 0x00	; 0
     7f6:	30 e0       	ldi	r19, 0x00	; 0
     7f8:	40 e8       	ldi	r20, 0x80	; 128
     7fa:	5f e3       	ldi	r21, 0x3F	; 63
     7fc:	0e 94 5a 15 	call	0x2ab4	; 0x2ab4 <__ltsf2>
     800:	88 23       	and	r24, r24
     802:	0c f4       	brge	.+2      	; 0x806 <pwm_ramp0A+0x148>
     804:	38 c0       	rjmp	.+112    	; 0x876 <pwm_ramp0A+0x1b8>
     806:	c8 01       	movw	r24, r16
     808:	b7 01       	movw	r22, r14
     80a:	20 e0       	ldi	r18, 0x00	; 0
     80c:	3f ef       	ldi	r19, 0xFF	; 255
     80e:	4f e7       	ldi	r20, 0x7F	; 127
     810:	57 e4       	ldi	r21, 0x47	; 71
     812:	0e 94 fa 14 	call	0x29f4	; 0x29f4 <__gtsf2>
     816:	18 16       	cp	r1, r24
     818:	14 f5       	brge	.+68     	; 0x85e <pwm_ramp0A+0x1a0>
     81a:	c4 01       	movw	r24, r8
     81c:	b3 01       	movw	r22, r6
     81e:	20 e0       	ldi	r18, 0x00	; 0
     820:	30 e0       	ldi	r19, 0x00	; 0
     822:	40 e2       	ldi	r20, 0x20	; 32
     824:	51 e4       	ldi	r21, 0x41	; 65
     826:	0e 94 00 14 	call	0x2800	; 0x2800 <__mulsf3>
     82a:	0e 94 2a 12 	call	0x2454	; 0x2454 <__fixunssfsi>
     82e:	cb 01       	movw	r24, r22
     830:	67 2b       	or	r22, r23
     832:	29 f0       	breq	.+10     	; 0x83e <pwm_ramp0A+0x180>
     834:	f5 01       	movw	r30, r10
     836:	31 97       	sbiw	r30, 0x01	; 1
     838:	f1 f7       	brne	.-4      	; 0x836 <pwm_ramp0A+0x178>
     83a:	01 97       	sbiw	r24, 0x01	; 1
     83c:	d9 f7       	brne	.-10     	; 0x834 <pwm_ramp0A+0x176>
     83e:	cc 15       	cp	r28, r12
     840:	dd 05       	cpc	r29, r13
     842:	a0 f6       	brcc	.-88     	; 0x7ec <pwm_ramp0A+0x12e>
     844:	a4 cf       	rjmp	.-184    	; 0x78e <pwm_ramp0A+0xd0>
     846:	c8 01       	movw	r24, r16
     848:	b7 01       	movw	r22, r14
     84a:	0e 94 2a 12 	call	0x2454	; 0x2454 <__fixunssfsi>
     84e:	cb 01       	movw	r24, r22
     850:	01 97       	sbiw	r24, 0x01	; 1
     852:	f1 f7       	brne	.-4      	; 0x850 <pwm_ramp0A+0x192>
     854:	cc 16       	cp	r12, r28
     856:	dd 06       	cpc	r13, r29
     858:	08 f0       	brcs	.+2      	; 0x85c <pwm_ramp0A+0x19e>
     85a:	68 cf       	rjmp	.-304    	; 0x72c <pwm_ramp0A+0x6e>
     85c:	94 cf       	rjmp	.-216    	; 0x786 <pwm_ramp0A+0xc8>
     85e:	c8 01       	movw	r24, r16
     860:	b7 01       	movw	r22, r14
     862:	0e 94 2a 12 	call	0x2454	; 0x2454 <__fixunssfsi>
     866:	cb 01       	movw	r24, r22
     868:	01 97       	sbiw	r24, 0x01	; 1
     86a:	f1 f7       	brne	.-4      	; 0x868 <pwm_ramp0A+0x1aa>
     86c:	cc 15       	cp	r28, r12
     86e:	dd 05       	cpc	r29, r13
     870:	08 f0       	brcs	.+2      	; 0x874 <pwm_ramp0A+0x1b6>
     872:	bc cf       	rjmp	.-136    	; 0x7ec <pwm_ramp0A+0x12e>
     874:	8c cf       	rjmp	.-232    	; 0x78e <pwm_ramp0A+0xd0>
     876:	61 e0       	ldi	r22, 0x01	; 1
     878:	70 e0       	ldi	r23, 0x00	; 0
     87a:	f5 cf       	rjmp	.-22     	; 0x866 <pwm_ramp0A+0x1a8>
     87c:	61 e0       	ldi	r22, 0x01	; 1
     87e:	70 e0       	ldi	r23, 0x00	; 0
     880:	e6 cf       	rjmp	.-52     	; 0x84e <pwm_ramp0A+0x190>
     882:	84 b5       	in	r24, 0x24	; 36
     884:	80 68       	ori	r24, 0x80	; 128
     886:	84 bd       	out	0x24, r24	; 36
     888:	17 bc       	out	0x27, r1	; 39
     88a:	85 cf       	rjmp	.-246    	; 0x796 <pwm_ramp0A+0xd8>

0000088c <pwm_rampUp0A>:
     88c:	6f 92       	push	r6
     88e:	7f 92       	push	r7
     890:	8f 92       	push	r8
     892:	9f 92       	push	r9
     894:	af 92       	push	r10
     896:	bf 92       	push	r11
     898:	cf 92       	push	r12
     89a:	df 92       	push	r13
     89c:	ef 92       	push	r14
     89e:	ff 92       	push	r15
     8a0:	0f 93       	push	r16
     8a2:	1f 93       	push	r17
     8a4:	cf 93       	push	r28
     8a6:	df 93       	push	r29
     8a8:	5c 01       	movw	r10, r24
     8aa:	84 b5       	in	r24, 0x24	; 36
     8ac:	80 68       	ori	r24, 0x80	; 128
     8ae:	84 bd       	out	0x24, r24	; 36
     8b0:	c0 91 18 02 	lds	r28, 0x0218
     8b4:	d0 91 19 02 	lds	r29, 0x0219
     8b8:	ac 16       	cp	r10, r28
     8ba:	bd 06       	cpc	r11, r29
     8bc:	08 f4       	brcc	.+2      	; 0x8c0 <pwm_rampUp0A+0x34>
     8be:	3e c0       	rjmp	.+124    	; 0x93c <__stack+0x3d>
     8c0:	80 e0       	ldi	r24, 0x00	; 0
     8c2:	90 e0       	ldi	r25, 0x00	; 0
     8c4:	0e 94 de 15 	call	0x2bbc	; 0x2bbc <__floatunsisf>
     8c8:	3b 01       	movw	r6, r22
     8ca:	4c 01       	movw	r8, r24
     8cc:	20 e0       	ldi	r18, 0x00	; 0
     8ce:	30 e0       	ldi	r19, 0x00	; 0
     8d0:	4a e7       	ldi	r20, 0x7A	; 122
     8d2:	55 e4       	ldi	r21, 0x45	; 69
     8d4:	0e 94 00 14 	call	0x2800	; 0x2800 <__mulsf3>
     8d8:	7b 01       	movw	r14, r22
     8da:	8c 01       	movw	r16, r24
     8dc:	20 e9       	ldi	r18, 0x90	; 144
     8de:	c2 2e       	mov	r12, r18
     8e0:	21 e0       	ldi	r18, 0x01	; 1
     8e2:	d2 2e       	mov	r13, r18
     8e4:	c7 bd       	out	0x27, r28	; 39
     8e6:	21 96       	adiw	r28, 0x01	; 1
     8e8:	c8 01       	movw	r24, r16
     8ea:	b7 01       	movw	r22, r14
     8ec:	20 e0       	ldi	r18, 0x00	; 0
     8ee:	30 e0       	ldi	r19, 0x00	; 0
     8f0:	40 e8       	ldi	r20, 0x80	; 128
     8f2:	5f e3       	ldi	r21, 0x3F	; 63
     8f4:	0e 94 5a 15 	call	0x2ab4	; 0x2ab4 <__ltsf2>
     8f8:	88 23       	and	r24, r24
     8fa:	0c f4       	brge	.+2      	; 0x8fe <pwm_rampUp0A+0x72>
     8fc:	3e c0       	rjmp	.+124    	; 0x97a <__stack+0x7b>
     8fe:	c8 01       	movw	r24, r16
     900:	b7 01       	movw	r22, r14
     902:	20 e0       	ldi	r18, 0x00	; 0
     904:	3f ef       	ldi	r19, 0xFF	; 255
     906:	4f e7       	ldi	r20, 0x7F	; 127
     908:	57 e4       	ldi	r21, 0x47	; 71
     90a:	0e 94 fa 14 	call	0x29f4	; 0x29f4 <__gtsf2>
     90e:	18 16       	cp	r1, r24
     910:	44 f5       	brge	.+80     	; 0x962 <__stack+0x63>
     912:	c4 01       	movw	r24, r8
     914:	b3 01       	movw	r22, r6
     916:	20 e0       	ldi	r18, 0x00	; 0
     918:	30 e0       	ldi	r19, 0x00	; 0
     91a:	40 e2       	ldi	r20, 0x20	; 32
     91c:	51 e4       	ldi	r21, 0x41	; 65
     91e:	0e 94 00 14 	call	0x2800	; 0x2800 <__mulsf3>
     922:	0e 94 2a 12 	call	0x2454	; 0x2454 <__fixunssfsi>
     926:	cb 01       	movw	r24, r22
     928:	67 2b       	or	r22, r23
     92a:	29 f0       	breq	.+10     	; 0x936 <__stack+0x37>
     92c:	f6 01       	movw	r30, r12
     92e:	31 97       	sbiw	r30, 0x01	; 1
     930:	f1 f7       	brne	.-4      	; 0x92e <__stack+0x2f>
     932:	01 97       	sbiw	r24, 0x01	; 1
     934:	d9 f7       	brne	.-10     	; 0x92c <__stack+0x2d>
     936:	ac 16       	cp	r10, r28
     938:	bd 06       	cpc	r11, r29
     93a:	a0 f6       	brcc	.-88     	; 0x8e4 <pwm_rampUp0A+0x58>
     93c:	b0 92 19 02 	sts	0x0219, r11
     940:	a0 92 18 02 	sts	0x0218, r10
     944:	df 91       	pop	r29
     946:	cf 91       	pop	r28
     948:	1f 91       	pop	r17
     94a:	0f 91       	pop	r16
     94c:	ff 90       	pop	r15
     94e:	ef 90       	pop	r14
     950:	df 90       	pop	r13
     952:	cf 90       	pop	r12
     954:	bf 90       	pop	r11
     956:	af 90       	pop	r10
     958:	9f 90       	pop	r9
     95a:	8f 90       	pop	r8
     95c:	7f 90       	pop	r7
     95e:	6f 90       	pop	r6
     960:	08 95       	ret
     962:	c8 01       	movw	r24, r16
     964:	b7 01       	movw	r22, r14
     966:	0e 94 2a 12 	call	0x2454	; 0x2454 <__fixunssfsi>
     96a:	cb 01       	movw	r24, r22
     96c:	01 97       	sbiw	r24, 0x01	; 1
     96e:	f1 f7       	brne	.-4      	; 0x96c <__stack+0x6d>
     970:	ac 16       	cp	r10, r28
     972:	bd 06       	cpc	r11, r29
     974:	08 f0       	brcs	.+2      	; 0x978 <__stack+0x79>
     976:	b6 cf       	rjmp	.-148    	; 0x8e4 <pwm_rampUp0A+0x58>
     978:	e1 cf       	rjmp	.-62     	; 0x93c <__stack+0x3d>
     97a:	61 e0       	ldi	r22, 0x01	; 1
     97c:	70 e0       	ldi	r23, 0x00	; 0
     97e:	f5 cf       	rjmp	.-22     	; 0x96a <__stack+0x6b>

00000980 <pwm_rampDown0A>:
     980:	6f 92       	push	r6
     982:	7f 92       	push	r7
     984:	8f 92       	push	r8
     986:	9f 92       	push	r9
     988:	af 92       	push	r10
     98a:	bf 92       	push	r11
     98c:	cf 92       	push	r12
     98e:	df 92       	push	r13
     990:	ef 92       	push	r14
     992:	ff 92       	push	r15
     994:	0f 93       	push	r16
     996:	1f 93       	push	r17
     998:	cf 93       	push	r28
     99a:	df 93       	push	r29
     99c:	6c 01       	movw	r12, r24
     99e:	00 97       	sbiw	r24, 0x00	; 0
     9a0:	09 f4       	brne	.+2      	; 0x9a4 <pwm_rampDown0A+0x24>
     9a2:	6b c0       	rjmp	.+214    	; 0xa7a <pwm_rampDown0A+0xfa>
     9a4:	84 b5       	in	r24, 0x24	; 36
     9a6:	80 68       	ori	r24, 0x80	; 128
     9a8:	84 bd       	out	0x24, r24	; 36
     9aa:	c0 91 18 02 	lds	r28, 0x0218
     9ae:	d0 91 19 02 	lds	r29, 0x0219
     9b2:	cc 15       	cp	r28, r12
     9b4:	dd 05       	cpc	r29, r13
     9b6:	08 f4       	brcc	.+2      	; 0x9ba <pwm_rampDown0A+0x3a>
     9b8:	3e c0       	rjmp	.+124    	; 0xa36 <pwm_rampDown0A+0xb6>
     9ba:	80 e0       	ldi	r24, 0x00	; 0
     9bc:	90 e0       	ldi	r25, 0x00	; 0
     9be:	0e 94 de 15 	call	0x2bbc	; 0x2bbc <__floatunsisf>
     9c2:	3b 01       	movw	r6, r22
     9c4:	4c 01       	movw	r8, r24
     9c6:	20 e0       	ldi	r18, 0x00	; 0
     9c8:	30 e0       	ldi	r19, 0x00	; 0
     9ca:	4a e7       	ldi	r20, 0x7A	; 122
     9cc:	55 e4       	ldi	r21, 0x45	; 69
     9ce:	0e 94 00 14 	call	0x2800	; 0x2800 <__mulsf3>
     9d2:	7b 01       	movw	r14, r22
     9d4:	8c 01       	movw	r16, r24
     9d6:	30 e9       	ldi	r19, 0x90	; 144
     9d8:	a3 2e       	mov	r10, r19
     9da:	31 e0       	ldi	r19, 0x01	; 1
     9dc:	b3 2e       	mov	r11, r19
     9de:	c7 bd       	out	0x27, r28	; 39
     9e0:	21 97       	sbiw	r28, 0x01	; 1
     9e2:	c8 01       	movw	r24, r16
     9e4:	b7 01       	movw	r22, r14
     9e6:	20 e0       	ldi	r18, 0x00	; 0
     9e8:	30 e0       	ldi	r19, 0x00	; 0
     9ea:	40 e8       	ldi	r20, 0x80	; 128
     9ec:	5f e3       	ldi	r21, 0x3F	; 63
     9ee:	0e 94 5a 15 	call	0x2ab4	; 0x2ab4 <__ltsf2>
     9f2:	88 23       	and	r24, r24
     9f4:	0c f4       	brge	.+2      	; 0x9f8 <pwm_rampDown0A+0x78>
     9f6:	3e c0       	rjmp	.+124    	; 0xa74 <pwm_rampDown0A+0xf4>
     9f8:	c8 01       	movw	r24, r16
     9fa:	b7 01       	movw	r22, r14
     9fc:	20 e0       	ldi	r18, 0x00	; 0
     9fe:	3f ef       	ldi	r19, 0xFF	; 255
     a00:	4f e7       	ldi	r20, 0x7F	; 127
     a02:	57 e4       	ldi	r21, 0x47	; 71
     a04:	0e 94 fa 14 	call	0x29f4	; 0x29f4 <__gtsf2>
     a08:	18 16       	cp	r1, r24
     a0a:	44 f5       	brge	.+80     	; 0xa5c <pwm_rampDown0A+0xdc>
     a0c:	c4 01       	movw	r24, r8
     a0e:	b3 01       	movw	r22, r6
     a10:	20 e0       	ldi	r18, 0x00	; 0
     a12:	30 e0       	ldi	r19, 0x00	; 0
     a14:	40 e2       	ldi	r20, 0x20	; 32
     a16:	51 e4       	ldi	r21, 0x41	; 65
     a18:	0e 94 00 14 	call	0x2800	; 0x2800 <__mulsf3>
     a1c:	0e 94 2a 12 	call	0x2454	; 0x2454 <__fixunssfsi>
     a20:	cb 01       	movw	r24, r22
     a22:	67 2b       	or	r22, r23
     a24:	29 f0       	breq	.+10     	; 0xa30 <pwm_rampDown0A+0xb0>
     a26:	f5 01       	movw	r30, r10
     a28:	31 97       	sbiw	r30, 0x01	; 1
     a2a:	f1 f7       	brne	.-4      	; 0xa28 <pwm_rampDown0A+0xa8>
     a2c:	01 97       	sbiw	r24, 0x01	; 1
     a2e:	d9 f7       	brne	.-10     	; 0xa26 <pwm_rampDown0A+0xa6>
     a30:	cc 15       	cp	r28, r12
     a32:	dd 05       	cpc	r29, r13
     a34:	a0 f6       	brcc	.-88     	; 0x9de <pwm_rampDown0A+0x5e>
     a36:	d0 92 19 02 	sts	0x0219, r13
     a3a:	c0 92 18 02 	sts	0x0218, r12
     a3e:	df 91       	pop	r29
     a40:	cf 91       	pop	r28
     a42:	1f 91       	pop	r17
     a44:	0f 91       	pop	r16
     a46:	ff 90       	pop	r15
     a48:	ef 90       	pop	r14
     a4a:	df 90       	pop	r13
     a4c:	cf 90       	pop	r12
     a4e:	bf 90       	pop	r11
     a50:	af 90       	pop	r10
     a52:	9f 90       	pop	r9
     a54:	8f 90       	pop	r8
     a56:	7f 90       	pop	r7
     a58:	6f 90       	pop	r6
     a5a:	08 95       	ret
     a5c:	c8 01       	movw	r24, r16
     a5e:	b7 01       	movw	r22, r14
     a60:	0e 94 2a 12 	call	0x2454	; 0x2454 <__fixunssfsi>
     a64:	cb 01       	movw	r24, r22
     a66:	01 97       	sbiw	r24, 0x01	; 1
     a68:	f1 f7       	brne	.-4      	; 0xa66 <pwm_rampDown0A+0xe6>
     a6a:	cc 15       	cp	r28, r12
     a6c:	dd 05       	cpc	r29, r13
     a6e:	08 f0       	brcs	.+2      	; 0xa72 <pwm_rampDown0A+0xf2>
     a70:	b6 cf       	rjmp	.-148    	; 0x9de <pwm_rampDown0A+0x5e>
     a72:	e1 cf       	rjmp	.-62     	; 0xa36 <pwm_rampDown0A+0xb6>
     a74:	61 e0       	ldi	r22, 0x01	; 1
     a76:	70 e0       	ldi	r23, 0x00	; 0
     a78:	f5 cf       	rjmp	.-22     	; 0xa64 <pwm_rampDown0A+0xe4>
     a7a:	84 b5       	in	r24, 0x24	; 36
     a7c:	80 68       	ori	r24, 0x80	; 128
     a7e:	84 bd       	out	0x24, r24	; 36
     a80:	17 bc       	out	0x27, r1	; 39
     a82:	d9 cf       	rjmp	.-78     	; 0xa36 <pwm_rampDown0A+0xb6>

00000a84 <pwm_ramp0B>:
     a84:	6f 92       	push	r6
     a86:	7f 92       	push	r7
     a88:	8f 92       	push	r8
     a8a:	9f 92       	push	r9
     a8c:	af 92       	push	r10
     a8e:	bf 92       	push	r11
     a90:	cf 92       	push	r12
     a92:	df 92       	push	r13
     a94:	ef 92       	push	r14
     a96:	ff 92       	push	r15
     a98:	0f 93       	push	r16
     a9a:	1f 93       	push	r17
     a9c:	cf 93       	push	r28
     a9e:	df 93       	push	r29
     aa0:	6c 01       	movw	r12, r24
     aa2:	00 97       	sbiw	r24, 0x00	; 0
     aa4:	09 f0       	breq	.+2      	; 0xaa8 <pwm_ramp0B+0x24>
     aa6:	6f c0       	rjmp	.+222    	; 0xb86 <pwm_ramp0B+0x102>
     aa8:	84 b5       	in	r24, 0x24	; 36
     aaa:	80 62       	ori	r24, 0x20	; 32
     aac:	84 bd       	out	0x24, r24	; 36
     aae:	18 bc       	out	0x28, r1	; 40
     ab0:	80 91 10 02 	lds	r24, 0x0210
     ab4:	90 91 11 02 	lds	r25, 0x0211
     ab8:	84 b5       	in	r24, 0x24	; 36
     aba:	80 62       	ori	r24, 0x20	; 32
     abc:	84 bd       	out	0x24, r24	; 36
     abe:	c0 91 10 02 	lds	r28, 0x0210
     ac2:	d0 91 11 02 	lds	r29, 0x0211
     ac6:	80 e0       	ldi	r24, 0x00	; 0
     ac8:	90 e0       	ldi	r25, 0x00	; 0
     aca:	0e 94 de 15 	call	0x2bbc	; 0x2bbc <__floatunsisf>
     ace:	3b 01       	movw	r6, r22
     ad0:	4c 01       	movw	r8, r24
     ad2:	20 e0       	ldi	r18, 0x00	; 0
     ad4:	30 e0       	ldi	r19, 0x00	; 0
     ad6:	4a e7       	ldi	r20, 0x7A	; 122
     ad8:	55 e4       	ldi	r21, 0x45	; 69
     ada:	0e 94 00 14 	call	0x2800	; 0x2800 <__mulsf3>
     ade:	7b 01       	movw	r14, r22
     ae0:	8c 01       	movw	r16, r24
     ae2:	50 e9       	ldi	r21, 0x90	; 144
     ae4:	a5 2e       	mov	r10, r21
     ae6:	51 e0       	ldi	r21, 0x01	; 1
     ae8:	b5 2e       	mov	r11, r21
     aea:	c8 bd       	out	0x28, r28	; 40
     aec:	21 97       	sbiw	r28, 0x01	; 1
     aee:	c8 01       	movw	r24, r16
     af0:	b7 01       	movw	r22, r14
     af2:	20 e0       	ldi	r18, 0x00	; 0
     af4:	30 e0       	ldi	r19, 0x00	; 0
     af6:	40 e8       	ldi	r20, 0x80	; 128
     af8:	5f e3       	ldi	r21, 0x3F	; 63
     afa:	0e 94 5a 15 	call	0x2ab4	; 0x2ab4 <__ltsf2>
     afe:	88 23       	and	r24, r24
     b00:	0c f4       	brge	.+2      	; 0xb04 <pwm_ramp0B+0x80>
     b02:	3e c0       	rjmp	.+124    	; 0xb80 <pwm_ramp0B+0xfc>
     b04:	c8 01       	movw	r24, r16
     b06:	b7 01       	movw	r22, r14
     b08:	20 e0       	ldi	r18, 0x00	; 0
     b0a:	3f ef       	ldi	r19, 0xFF	; 255
     b0c:	4f e7       	ldi	r20, 0x7F	; 127
     b0e:	57 e4       	ldi	r21, 0x47	; 71
     b10:	0e 94 fa 14 	call	0x29f4	; 0x29f4 <__gtsf2>
     b14:	18 16       	cp	r1, r24
     b16:	44 f5       	brge	.+80     	; 0xb68 <pwm_ramp0B+0xe4>
     b18:	c4 01       	movw	r24, r8
     b1a:	b3 01       	movw	r22, r6
     b1c:	20 e0       	ldi	r18, 0x00	; 0
     b1e:	30 e0       	ldi	r19, 0x00	; 0
     b20:	40 e2       	ldi	r20, 0x20	; 32
     b22:	51 e4       	ldi	r21, 0x41	; 65
     b24:	0e 94 00 14 	call	0x2800	; 0x2800 <__mulsf3>
     b28:	0e 94 2a 12 	call	0x2454	; 0x2454 <__fixunssfsi>
     b2c:	cb 01       	movw	r24, r22
     b2e:	67 2b       	or	r22, r23
     b30:	29 f0       	breq	.+10     	; 0xb3c <pwm_ramp0B+0xb8>
     b32:	f5 01       	movw	r30, r10
     b34:	31 97       	sbiw	r30, 0x01	; 1
     b36:	f1 f7       	brne	.-4      	; 0xb34 <pwm_ramp0B+0xb0>
     b38:	01 97       	sbiw	r24, 0x01	; 1
     b3a:	d9 f7       	brne	.-10     	; 0xb32 <pwm_ramp0B+0xae>
     b3c:	cc 15       	cp	r28, r12
     b3e:	dd 05       	cpc	r29, r13
     b40:	a0 f6       	brcc	.-88     	; 0xaea <pwm_ramp0B+0x66>
     b42:	d0 92 11 02 	sts	0x0211, r13
     b46:	c0 92 10 02 	sts	0x0210, r12
     b4a:	df 91       	pop	r29
     b4c:	cf 91       	pop	r28
     b4e:	1f 91       	pop	r17
     b50:	0f 91       	pop	r16
     b52:	ff 90       	pop	r15
     b54:	ef 90       	pop	r14
     b56:	df 90       	pop	r13
     b58:	cf 90       	pop	r12
     b5a:	bf 90       	pop	r11
     b5c:	af 90       	pop	r10
     b5e:	9f 90       	pop	r9
     b60:	8f 90       	pop	r8
     b62:	7f 90       	pop	r7
     b64:	6f 90       	pop	r6
     b66:	08 95       	ret
     b68:	c8 01       	movw	r24, r16
     b6a:	b7 01       	movw	r22, r14
     b6c:	0e 94 2a 12 	call	0x2454	; 0x2454 <__fixunssfsi>
     b70:	cb 01       	movw	r24, r22
     b72:	01 97       	sbiw	r24, 0x01	; 1
     b74:	f1 f7       	brne	.-4      	; 0xb72 <pwm_ramp0B+0xee>
     b76:	cc 15       	cp	r28, r12
     b78:	dd 05       	cpc	r29, r13
     b7a:	08 f0       	brcs	.+2      	; 0xb7e <pwm_ramp0B+0xfa>
     b7c:	b6 cf       	rjmp	.-148    	; 0xaea <pwm_ramp0B+0x66>
     b7e:	e1 cf       	rjmp	.-62     	; 0xb42 <pwm_ramp0B+0xbe>
     b80:	61 e0       	ldi	r22, 0x01	; 1
     b82:	70 e0       	ldi	r23, 0x00	; 0
     b84:	f5 cf       	rjmp	.-22     	; 0xb70 <pwm_ramp0B+0xec>
     b86:	80 91 10 02 	lds	r24, 0x0210
     b8a:	90 91 11 02 	lds	r25, 0x0211
     b8e:	8c 15       	cp	r24, r12
     b90:	9d 05       	cpc	r25, r13
     b92:	08 f0       	brcs	.+2      	; 0xb96 <pwm_ramp0B+0x112>
     b94:	56 c0       	rjmp	.+172    	; 0xc42 <pwm_ramp0B+0x1be>
     b96:	84 b5       	in	r24, 0x24	; 36
     b98:	80 62       	ori	r24, 0x20	; 32
     b9a:	84 bd       	out	0x24, r24	; 36
     b9c:	c0 91 10 02 	lds	r28, 0x0210
     ba0:	d0 91 11 02 	lds	r29, 0x0211
     ba4:	cc 16       	cp	r12, r28
     ba6:	dd 06       	cpc	r13, r29
     ba8:	60 f2       	brcs	.-104    	; 0xb42 <pwm_ramp0B+0xbe>
     baa:	80 e0       	ldi	r24, 0x00	; 0
     bac:	90 e0       	ldi	r25, 0x00	; 0
     bae:	0e 94 de 15 	call	0x2bbc	; 0x2bbc <__floatunsisf>
     bb2:	3b 01       	movw	r6, r22
     bb4:	4c 01       	movw	r8, r24
     bb6:	20 e0       	ldi	r18, 0x00	; 0
     bb8:	30 e0       	ldi	r19, 0x00	; 0
     bba:	4a e7       	ldi	r20, 0x7A	; 122
     bbc:	55 e4       	ldi	r21, 0x45	; 69
     bbe:	0e 94 00 14 	call	0x2800	; 0x2800 <__mulsf3>
     bc2:	7b 01       	movw	r14, r22
     bc4:	8c 01       	movw	r16, r24
     bc6:	40 e9       	ldi	r20, 0x90	; 144
     bc8:	a4 2e       	mov	r10, r20
     bca:	41 e0       	ldi	r20, 0x01	; 1
     bcc:	b4 2e       	mov	r11, r20
     bce:	c8 bd       	out	0x28, r28	; 40
     bd0:	21 96       	adiw	r28, 0x01	; 1
     bd2:	c8 01       	movw	r24, r16
     bd4:	b7 01       	movw	r22, r14
     bd6:	20 e0       	ldi	r18, 0x00	; 0
     bd8:	30 e0       	ldi	r19, 0x00	; 0
     bda:	40 e8       	ldi	r20, 0x80	; 128
     bdc:	5f e3       	ldi	r21, 0x3F	; 63
     bde:	0e 94 5a 15 	call	0x2ab4	; 0x2ab4 <__ltsf2>
     be2:	88 23       	and	r24, r24
     be4:	5c f1       	brlt	.+86     	; 0xc3c <pwm_ramp0B+0x1b8>
     be6:	c8 01       	movw	r24, r16
     be8:	b7 01       	movw	r22, r14
     bea:	20 e0       	ldi	r18, 0x00	; 0
     bec:	3f ef       	ldi	r19, 0xFF	; 255
     bee:	4f e7       	ldi	r20, 0x7F	; 127
     bf0:	57 e4       	ldi	r21, 0x47	; 71
     bf2:	0e 94 fa 14 	call	0x29f4	; 0x29f4 <__gtsf2>
     bf6:	18 16       	cp	r1, r24
     bf8:	b4 f4       	brge	.+44     	; 0xc26 <pwm_ramp0B+0x1a2>
     bfa:	c4 01       	movw	r24, r8
     bfc:	b3 01       	movw	r22, r6
     bfe:	20 e0       	ldi	r18, 0x00	; 0
     c00:	30 e0       	ldi	r19, 0x00	; 0
     c02:	40 e2       	ldi	r20, 0x20	; 32
     c04:	51 e4       	ldi	r21, 0x41	; 65
     c06:	0e 94 00 14 	call	0x2800	; 0x2800 <__mulsf3>
     c0a:	0e 94 2a 12 	call	0x2454	; 0x2454 <__fixunssfsi>
     c0e:	cb 01       	movw	r24, r22
     c10:	67 2b       	or	r22, r23
     c12:	29 f0       	breq	.+10     	; 0xc1e <pwm_ramp0B+0x19a>
     c14:	f5 01       	movw	r30, r10
     c16:	31 97       	sbiw	r30, 0x01	; 1
     c18:	f1 f7       	brne	.-4      	; 0xc16 <pwm_ramp0B+0x192>
     c1a:	01 97       	sbiw	r24, 0x01	; 1
     c1c:	d9 f7       	brne	.-10     	; 0xc14 <pwm_ramp0B+0x190>
     c1e:	cc 16       	cp	r12, r28
     c20:	dd 06       	cpc	r13, r29
     c22:	a8 f6       	brcc	.-86     	; 0xbce <pwm_ramp0B+0x14a>
     c24:	8e cf       	rjmp	.-228    	; 0xb42 <pwm_ramp0B+0xbe>
     c26:	c8 01       	movw	r24, r16
     c28:	b7 01       	movw	r22, r14
     c2a:	0e 94 2a 12 	call	0x2454	; 0x2454 <__fixunssfsi>
     c2e:	cb 01       	movw	r24, r22
     c30:	01 97       	sbiw	r24, 0x01	; 1
     c32:	f1 f7       	brne	.-4      	; 0xc30 <pwm_ramp0B+0x1ac>
     c34:	cc 16       	cp	r12, r28
     c36:	dd 06       	cpc	r13, r29
     c38:	50 f6       	brcc	.-108    	; 0xbce <pwm_ramp0B+0x14a>
     c3a:	83 cf       	rjmp	.-250    	; 0xb42 <pwm_ramp0B+0xbe>
     c3c:	61 e0       	ldi	r22, 0x01	; 1
     c3e:	70 e0       	ldi	r23, 0x00	; 0
     c40:	f6 cf       	rjmp	.-20     	; 0xc2e <pwm_ramp0B+0x1aa>
     c42:	84 b5       	in	r24, 0x24	; 36
     c44:	80 62       	ori	r24, 0x20	; 32
     c46:	84 bd       	out	0x24, r24	; 36
     c48:	c0 91 10 02 	lds	r28, 0x0210
     c4c:	d0 91 11 02 	lds	r29, 0x0211
     c50:	cc 15       	cp	r28, r12
     c52:	dd 05       	cpc	r29, r13
     c54:	08 f4       	brcc	.+2      	; 0xc58 <pwm_ramp0B+0x1d4>
     c56:	75 cf       	rjmp	.-278    	; 0xb42 <pwm_ramp0B+0xbe>
     c58:	36 cf       	rjmp	.-404    	; 0xac6 <pwm_ramp0B+0x42>

00000c5a <pwm_rampUp0B>:
     c5a:	6f 92       	push	r6
     c5c:	7f 92       	push	r7
     c5e:	8f 92       	push	r8
     c60:	9f 92       	push	r9
     c62:	af 92       	push	r10
     c64:	bf 92       	push	r11
     c66:	cf 92       	push	r12
     c68:	df 92       	push	r13
     c6a:	ef 92       	push	r14
     c6c:	ff 92       	push	r15
     c6e:	0f 93       	push	r16
     c70:	1f 93       	push	r17
     c72:	cf 93       	push	r28
     c74:	df 93       	push	r29
     c76:	5c 01       	movw	r10, r24
     c78:	84 b5       	in	r24, 0x24	; 36
     c7a:	80 62       	ori	r24, 0x20	; 32
     c7c:	84 bd       	out	0x24, r24	; 36
     c7e:	c0 91 10 02 	lds	r28, 0x0210
     c82:	d0 91 11 02 	lds	r29, 0x0211
     c86:	ac 16       	cp	r10, r28
     c88:	bd 06       	cpc	r11, r29
     c8a:	08 f4       	brcc	.+2      	; 0xc8e <pwm_rampUp0B+0x34>
     c8c:	3e c0       	rjmp	.+124    	; 0xd0a <pwm_rampUp0B+0xb0>
     c8e:	80 e0       	ldi	r24, 0x00	; 0
     c90:	90 e0       	ldi	r25, 0x00	; 0
     c92:	0e 94 de 15 	call	0x2bbc	; 0x2bbc <__floatunsisf>
     c96:	3b 01       	movw	r6, r22
     c98:	4c 01       	movw	r8, r24
     c9a:	20 e0       	ldi	r18, 0x00	; 0
     c9c:	30 e0       	ldi	r19, 0x00	; 0
     c9e:	4a e7       	ldi	r20, 0x7A	; 122
     ca0:	55 e4       	ldi	r21, 0x45	; 69
     ca2:	0e 94 00 14 	call	0x2800	; 0x2800 <__mulsf3>
     ca6:	7b 01       	movw	r14, r22
     ca8:	8c 01       	movw	r16, r24
     caa:	60 e9       	ldi	r22, 0x90	; 144
     cac:	c6 2e       	mov	r12, r22
     cae:	61 e0       	ldi	r22, 0x01	; 1
     cb0:	d6 2e       	mov	r13, r22
     cb2:	c8 bd       	out	0x28, r28	; 40
     cb4:	21 96       	adiw	r28, 0x01	; 1
     cb6:	c8 01       	movw	r24, r16
     cb8:	b7 01       	movw	r22, r14
     cba:	20 e0       	ldi	r18, 0x00	; 0
     cbc:	30 e0       	ldi	r19, 0x00	; 0
     cbe:	40 e8       	ldi	r20, 0x80	; 128
     cc0:	5f e3       	ldi	r21, 0x3F	; 63
     cc2:	0e 94 5a 15 	call	0x2ab4	; 0x2ab4 <__ltsf2>
     cc6:	88 23       	and	r24, r24
     cc8:	0c f4       	brge	.+2      	; 0xccc <pwm_rampUp0B+0x72>
     cca:	3e c0       	rjmp	.+124    	; 0xd48 <pwm_rampUp0B+0xee>
     ccc:	c8 01       	movw	r24, r16
     cce:	b7 01       	movw	r22, r14
     cd0:	20 e0       	ldi	r18, 0x00	; 0
     cd2:	3f ef       	ldi	r19, 0xFF	; 255
     cd4:	4f e7       	ldi	r20, 0x7F	; 127
     cd6:	57 e4       	ldi	r21, 0x47	; 71
     cd8:	0e 94 fa 14 	call	0x29f4	; 0x29f4 <__gtsf2>
     cdc:	18 16       	cp	r1, r24
     cde:	44 f5       	brge	.+80     	; 0xd30 <pwm_rampUp0B+0xd6>
     ce0:	c4 01       	movw	r24, r8
     ce2:	b3 01       	movw	r22, r6
     ce4:	20 e0       	ldi	r18, 0x00	; 0
     ce6:	30 e0       	ldi	r19, 0x00	; 0
     ce8:	40 e2       	ldi	r20, 0x20	; 32
     cea:	51 e4       	ldi	r21, 0x41	; 65
     cec:	0e 94 00 14 	call	0x2800	; 0x2800 <__mulsf3>
     cf0:	0e 94 2a 12 	call	0x2454	; 0x2454 <__fixunssfsi>
     cf4:	cb 01       	movw	r24, r22
     cf6:	67 2b       	or	r22, r23
     cf8:	29 f0       	breq	.+10     	; 0xd04 <pwm_rampUp0B+0xaa>
     cfa:	f6 01       	movw	r30, r12
     cfc:	31 97       	sbiw	r30, 0x01	; 1
     cfe:	f1 f7       	brne	.-4      	; 0xcfc <pwm_rampUp0B+0xa2>
     d00:	01 97       	sbiw	r24, 0x01	; 1
     d02:	d9 f7       	brne	.-10     	; 0xcfa <pwm_rampUp0B+0xa0>
     d04:	ac 16       	cp	r10, r28
     d06:	bd 06       	cpc	r11, r29
     d08:	a0 f6       	brcc	.-88     	; 0xcb2 <pwm_rampUp0B+0x58>
     d0a:	b0 92 11 02 	sts	0x0211, r11
     d0e:	a0 92 10 02 	sts	0x0210, r10
     d12:	df 91       	pop	r29
     d14:	cf 91       	pop	r28
     d16:	1f 91       	pop	r17
     d18:	0f 91       	pop	r16
     d1a:	ff 90       	pop	r15
     d1c:	ef 90       	pop	r14
     d1e:	df 90       	pop	r13
     d20:	cf 90       	pop	r12
     d22:	bf 90       	pop	r11
     d24:	af 90       	pop	r10
     d26:	9f 90       	pop	r9
     d28:	8f 90       	pop	r8
     d2a:	7f 90       	pop	r7
     d2c:	6f 90       	pop	r6
     d2e:	08 95       	ret
     d30:	c8 01       	movw	r24, r16
     d32:	b7 01       	movw	r22, r14
     d34:	0e 94 2a 12 	call	0x2454	; 0x2454 <__fixunssfsi>
     d38:	cb 01       	movw	r24, r22
     d3a:	01 97       	sbiw	r24, 0x01	; 1
     d3c:	f1 f7       	brne	.-4      	; 0xd3a <pwm_rampUp0B+0xe0>
     d3e:	ac 16       	cp	r10, r28
     d40:	bd 06       	cpc	r11, r29
     d42:	08 f0       	brcs	.+2      	; 0xd46 <pwm_rampUp0B+0xec>
     d44:	b6 cf       	rjmp	.-148    	; 0xcb2 <pwm_rampUp0B+0x58>
     d46:	e1 cf       	rjmp	.-62     	; 0xd0a <pwm_rampUp0B+0xb0>
     d48:	61 e0       	ldi	r22, 0x01	; 1
     d4a:	70 e0       	ldi	r23, 0x00	; 0
     d4c:	f5 cf       	rjmp	.-22     	; 0xd38 <pwm_rampUp0B+0xde>

00000d4e <pwm_rampDown0B>:
     d4e:	6f 92       	push	r6
     d50:	7f 92       	push	r7
     d52:	8f 92       	push	r8
     d54:	9f 92       	push	r9
     d56:	af 92       	push	r10
     d58:	bf 92       	push	r11
     d5a:	cf 92       	push	r12
     d5c:	df 92       	push	r13
     d5e:	ef 92       	push	r14
     d60:	ff 92       	push	r15
     d62:	0f 93       	push	r16
     d64:	1f 93       	push	r17
     d66:	cf 93       	push	r28
     d68:	df 93       	push	r29
     d6a:	5c 01       	movw	r10, r24
     d6c:	00 97       	sbiw	r24, 0x00	; 0
     d6e:	09 f0       	breq	.+2      	; 0xd72 <pwm_rampDown0B+0x24>
     d70:	6e c0       	rjmp	.+220    	; 0xe4e <pwm_rampDown0B+0x100>
     d72:	84 b5       	in	r24, 0x24	; 36
     d74:	80 62       	ori	r24, 0x20	; 32
     d76:	84 bd       	out	0x24, r24	; 36
     d78:	18 bc       	out	0x28, r1	; 40
     d7a:	84 b5       	in	r24, 0x24	; 36
     d7c:	80 62       	ori	r24, 0x20	; 32
     d7e:	84 bd       	out	0x24, r24	; 36
     d80:	c0 91 10 02 	lds	r28, 0x0210
     d84:	d0 91 11 02 	lds	r29, 0x0211
     d88:	80 e0       	ldi	r24, 0x00	; 0
     d8a:	90 e0       	ldi	r25, 0x00	; 0
     d8c:	0e 94 de 15 	call	0x2bbc	; 0x2bbc <__floatunsisf>
     d90:	3b 01       	movw	r6, r22
     d92:	4c 01       	movw	r8, r24
     d94:	20 e0       	ldi	r18, 0x00	; 0
     d96:	30 e0       	ldi	r19, 0x00	; 0
     d98:	4a e7       	ldi	r20, 0x7A	; 122
     d9a:	55 e4       	ldi	r21, 0x45	; 69
     d9c:	0e 94 00 14 	call	0x2800	; 0x2800 <__mulsf3>
     da0:	7b 01       	movw	r14, r22
     da2:	8c 01       	movw	r16, r24
     da4:	70 e9       	ldi	r23, 0x90	; 144
     da6:	c7 2e       	mov	r12, r23
     da8:	71 e0       	ldi	r23, 0x01	; 1
     daa:	d7 2e       	mov	r13, r23
     dac:	d0 93 8b 00 	sts	0x008B, r29
     db0:	c0 93 8a 00 	sts	0x008A, r28
     db4:	21 97       	sbiw	r28, 0x01	; 1
     db6:	c8 01       	movw	r24, r16
     db8:	b7 01       	movw	r22, r14
     dba:	20 e0       	ldi	r18, 0x00	; 0
     dbc:	30 e0       	ldi	r19, 0x00	; 0
     dbe:	40 e8       	ldi	r20, 0x80	; 128
     dc0:	5f e3       	ldi	r21, 0x3F	; 63
     dc2:	0e 94 5a 15 	call	0x2ab4	; 0x2ab4 <__ltsf2>
     dc6:	88 23       	and	r24, r24
     dc8:	0c f4       	brge	.+2      	; 0xdcc <pwm_rampDown0B+0x7e>
     dca:	3e c0       	rjmp	.+124    	; 0xe48 <pwm_rampDown0B+0xfa>
     dcc:	c8 01       	movw	r24, r16
     dce:	b7 01       	movw	r22, r14
     dd0:	20 e0       	ldi	r18, 0x00	; 0
     dd2:	3f ef       	ldi	r19, 0xFF	; 255
     dd4:	4f e7       	ldi	r20, 0x7F	; 127
     dd6:	57 e4       	ldi	r21, 0x47	; 71
     dd8:	0e 94 fa 14 	call	0x29f4	; 0x29f4 <__gtsf2>
     ddc:	18 16       	cp	r1, r24
     dde:	44 f5       	brge	.+80     	; 0xe30 <pwm_rampDown0B+0xe2>
     de0:	c4 01       	movw	r24, r8
     de2:	b3 01       	movw	r22, r6
     de4:	20 e0       	ldi	r18, 0x00	; 0
     de6:	30 e0       	ldi	r19, 0x00	; 0
     de8:	40 e2       	ldi	r20, 0x20	; 32
     dea:	51 e4       	ldi	r21, 0x41	; 65
     dec:	0e 94 00 14 	call	0x2800	; 0x2800 <__mulsf3>
     df0:	0e 94 2a 12 	call	0x2454	; 0x2454 <__fixunssfsi>
     df4:	cb 01       	movw	r24, r22
     df6:	67 2b       	or	r22, r23
     df8:	29 f0       	breq	.+10     	; 0xe04 <pwm_rampDown0B+0xb6>
     dfa:	f6 01       	movw	r30, r12
     dfc:	31 97       	sbiw	r30, 0x01	; 1
     dfe:	f1 f7       	brne	.-4      	; 0xdfc <pwm_rampDown0B+0xae>
     e00:	01 97       	sbiw	r24, 0x01	; 1
     e02:	d9 f7       	brne	.-10     	; 0xdfa <pwm_rampDown0B+0xac>
     e04:	ca 15       	cp	r28, r10
     e06:	db 05       	cpc	r29, r11
     e08:	88 f6       	brcc	.-94     	; 0xdac <pwm_rampDown0B+0x5e>
     e0a:	b0 92 11 02 	sts	0x0211, r11
     e0e:	a0 92 10 02 	sts	0x0210, r10
     e12:	df 91       	pop	r29
     e14:	cf 91       	pop	r28
     e16:	1f 91       	pop	r17
     e18:	0f 91       	pop	r16
     e1a:	ff 90       	pop	r15
     e1c:	ef 90       	pop	r14
     e1e:	df 90       	pop	r13
     e20:	cf 90       	pop	r12
     e22:	bf 90       	pop	r11
     e24:	af 90       	pop	r10
     e26:	9f 90       	pop	r9
     e28:	8f 90       	pop	r8
     e2a:	7f 90       	pop	r7
     e2c:	6f 90       	pop	r6
     e2e:	08 95       	ret
     e30:	c8 01       	movw	r24, r16
     e32:	b7 01       	movw	r22, r14
     e34:	0e 94 2a 12 	call	0x2454	; 0x2454 <__fixunssfsi>
     e38:	cb 01       	movw	r24, r22
     e3a:	01 97       	sbiw	r24, 0x01	; 1
     e3c:	f1 f7       	brne	.-4      	; 0xe3a <pwm_rampDown0B+0xec>
     e3e:	ca 15       	cp	r28, r10
     e40:	db 05       	cpc	r29, r11
     e42:	08 f0       	brcs	.+2      	; 0xe46 <pwm_rampDown0B+0xf8>
     e44:	b3 cf       	rjmp	.-154    	; 0xdac <pwm_rampDown0B+0x5e>
     e46:	e1 cf       	rjmp	.-62     	; 0xe0a <pwm_rampDown0B+0xbc>
     e48:	61 e0       	ldi	r22, 0x01	; 1
     e4a:	70 e0       	ldi	r23, 0x00	; 0
     e4c:	f5 cf       	rjmp	.-22     	; 0xe38 <pwm_rampDown0B+0xea>
     e4e:	84 b5       	in	r24, 0x24	; 36
     e50:	80 62       	ori	r24, 0x20	; 32
     e52:	84 bd       	out	0x24, r24	; 36
     e54:	c0 91 10 02 	lds	r28, 0x0210
     e58:	d0 91 11 02 	lds	r29, 0x0211
     e5c:	ca 15       	cp	r28, r10
     e5e:	db 05       	cpc	r29, r11
     e60:	08 f0       	brcs	.+2      	; 0xe64 <pwm_rampDown0B+0x116>
     e62:	92 cf       	rjmp	.-220    	; 0xd88 <pwm_rampDown0B+0x3a>
     e64:	d2 cf       	rjmp	.-92     	; 0xe0a <pwm_rampDown0B+0xbc>

00000e66 <pwm_setup1>:
     e66:	e1 e8       	ldi	r30, 0x81	; 129
     e68:	f0 e0       	ldi	r31, 0x00	; 0
     e6a:	80 81       	ld	r24, Z
     e6c:	83 60       	ori	r24, 0x03	; 3
     e6e:	80 83       	st	Z, r24
     e70:	e0 e8       	ldi	r30, 0x80	; 128
     e72:	f0 e0       	ldi	r31, 0x00	; 0
     e74:	80 81       	ld	r24, Z
     e76:	81 60       	ori	r24, 0x01	; 1
     e78:	80 83       	st	Z, r24
     e7a:	21 9a       	sbi	0x04, 1	; 4
     e7c:	22 9a       	sbi	0x04, 2	; 4
     e7e:	10 92 0b 02 	sts	0x020B, r1
     e82:	10 92 0a 02 	sts	0x020A, r1
     e86:	10 92 13 02 	sts	0x0213, r1
     e8a:	10 92 12 02 	sts	0x0212, r1
     e8e:	10 92 2d 02 	sts	0x022D, r1
     e92:	10 92 2c 02 	sts	0x022C, r1
     e96:	10 92 1f 02 	sts	0x021F, r1
     e9a:	10 92 1e 02 	sts	0x021E, r1
     e9e:	10 92 29 02 	sts	0x0229, r1
     ea2:	10 92 28 02 	sts	0x0228, r1
     ea6:	10 92 1b 02 	sts	0x021B, r1
     eaa:	10 92 1a 02 	sts	0x021A, r1
     eae:	08 95       	ret

00000eb0 <pwm1A>:
     eb0:	e0 e8       	ldi	r30, 0x80	; 128
     eb2:	f0 e0       	ldi	r31, 0x00	; 0
     eb4:	20 81       	ld	r18, Z
     eb6:	20 68       	ori	r18, 0x80	; 128
     eb8:	20 83       	st	Z, r18
     eba:	90 93 89 00 	sts	0x0089, r25
     ebe:	80 93 88 00 	sts	0x0088, r24
     ec2:	08 95       	ret

00000ec4 <pwm1B>:
     ec4:	e0 e8       	ldi	r30, 0x80	; 128
     ec6:	f0 e0       	ldi	r31, 0x00	; 0
     ec8:	20 81       	ld	r18, Z
     eca:	20 62       	ori	r18, 0x20	; 32
     ecc:	20 83       	st	Z, r18
     ece:	90 93 8b 00 	sts	0x008B, r25
     ed2:	80 93 8a 00 	sts	0x008A, r24
     ed6:	08 95       	ret

00000ed8 <pwm_ramp1A>:
     ed8:	6f 92       	push	r6
     eda:	7f 92       	push	r7
     edc:	8f 92       	push	r8
     ede:	9f 92       	push	r9
     ee0:	af 92       	push	r10
     ee2:	bf 92       	push	r11
     ee4:	cf 92       	push	r12
     ee6:	df 92       	push	r13
     ee8:	ef 92       	push	r14
     eea:	ff 92       	push	r15
     eec:	0f 93       	push	r16
     eee:	1f 93       	push	r17
     ef0:	cf 93       	push	r28
     ef2:	df 93       	push	r29
     ef4:	6c 01       	movw	r12, r24
     ef6:	00 97       	sbiw	r24, 0x00	; 0
     ef8:	09 f4       	brne	.+2      	; 0xefc <pwm_ramp1A+0x24>
     efa:	da c0       	rjmp	.+436    	; 0x10b0 <pwm_ramp1A+0x1d8>
     efc:	80 91 2c 02 	lds	r24, 0x022C
     f00:	90 91 2d 02 	lds	r25, 0x022D
     f04:	8c 15       	cp	r24, r12
     f06:	9d 05       	cpc	r25, r13
     f08:	08 f0       	brcs	.+2      	; 0xf0c <pwm_ramp1A+0x34>
     f0a:	66 c0       	rjmp	.+204    	; 0xfd8 <pwm_ramp1A+0x100>
     f0c:	80 91 80 00 	lds	r24, 0x0080
     f10:	80 68       	ori	r24, 0x80	; 128
     f12:	80 93 80 00 	sts	0x0080, r24
     f16:	c0 91 2c 02 	lds	r28, 0x022C
     f1a:	d0 91 2d 02 	lds	r29, 0x022D
     f1e:	cc 16       	cp	r12, r28
     f20:	dd 06       	cpc	r13, r29
     f22:	08 f4       	brcc	.+2      	; 0xf26 <pwm_ramp1A+0x4e>
     f24:	42 c0       	rjmp	.+132    	; 0xfaa <pwm_ramp1A+0xd2>
     f26:	80 e0       	ldi	r24, 0x00	; 0
     f28:	90 e0       	ldi	r25, 0x00	; 0
     f2a:	0e 94 de 15 	call	0x2bbc	; 0x2bbc <__floatunsisf>
     f2e:	3b 01       	movw	r6, r22
     f30:	4c 01       	movw	r8, r24
     f32:	20 e0       	ldi	r18, 0x00	; 0
     f34:	30 e0       	ldi	r19, 0x00	; 0
     f36:	4a e7       	ldi	r20, 0x7A	; 122
     f38:	55 e4       	ldi	r21, 0x45	; 69
     f3a:	0e 94 00 14 	call	0x2800	; 0x2800 <__mulsf3>
     f3e:	7b 01       	movw	r14, r22
     f40:	8c 01       	movw	r16, r24
     f42:	f0 e9       	ldi	r31, 0x90	; 144
     f44:	af 2e       	mov	r10, r31
     f46:	f1 e0       	ldi	r31, 0x01	; 1
     f48:	bf 2e       	mov	r11, r31
     f4a:	d0 93 89 00 	sts	0x0089, r29
     f4e:	c0 93 88 00 	sts	0x0088, r28
     f52:	21 96       	adiw	r28, 0x01	; 1
     f54:	c8 01       	movw	r24, r16
     f56:	b7 01       	movw	r22, r14
     f58:	20 e0       	ldi	r18, 0x00	; 0
     f5a:	30 e0       	ldi	r19, 0x00	; 0
     f5c:	40 e8       	ldi	r20, 0x80	; 128
     f5e:	5f e3       	ldi	r21, 0x3F	; 63
     f60:	0e 94 5a 15 	call	0x2ab4	; 0x2ab4 <__ltsf2>
     f64:	88 23       	and	r24, r24
     f66:	0c f4       	brge	.+2      	; 0xf6a <pwm_ramp1A+0x92>
     f68:	a0 c0       	rjmp	.+320    	; 0x10aa <pwm_ramp1A+0x1d2>
     f6a:	c8 01       	movw	r24, r16
     f6c:	b7 01       	movw	r22, r14
     f6e:	20 e0       	ldi	r18, 0x00	; 0
     f70:	3f ef       	ldi	r19, 0xFF	; 255
     f72:	4f e7       	ldi	r20, 0x7F	; 127
     f74:	57 e4       	ldi	r21, 0x47	; 71
     f76:	0e 94 fa 14 	call	0x29f4	; 0x29f4 <__gtsf2>
     f7a:	18 16       	cp	r1, r24
     f7c:	0c f0       	brlt	.+2      	; 0xf80 <pwm_ramp1A+0xa8>
     f7e:	7a c0       	rjmp	.+244    	; 0x1074 <pwm_ramp1A+0x19c>
     f80:	c4 01       	movw	r24, r8
     f82:	b3 01       	movw	r22, r6
     f84:	20 e0       	ldi	r18, 0x00	; 0
     f86:	30 e0       	ldi	r19, 0x00	; 0
     f88:	40 e2       	ldi	r20, 0x20	; 32
     f8a:	51 e4       	ldi	r21, 0x41	; 65
     f8c:	0e 94 00 14 	call	0x2800	; 0x2800 <__mulsf3>
     f90:	0e 94 2a 12 	call	0x2454	; 0x2454 <__fixunssfsi>
     f94:	cb 01       	movw	r24, r22
     f96:	67 2b       	or	r22, r23
     f98:	29 f0       	breq	.+10     	; 0xfa4 <pwm_ramp1A+0xcc>
     f9a:	f5 01       	movw	r30, r10
     f9c:	31 97       	sbiw	r30, 0x01	; 1
     f9e:	f1 f7       	brne	.-4      	; 0xf9c <pwm_ramp1A+0xc4>
     fa0:	01 97       	sbiw	r24, 0x01	; 1
     fa2:	d9 f7       	brne	.-10     	; 0xf9a <pwm_ramp1A+0xc2>
     fa4:	cc 16       	cp	r12, r28
     fa6:	dd 06       	cpc	r13, r29
     fa8:	80 f6       	brcc	.-96     	; 0xf4a <pwm_ramp1A+0x72>
     faa:	d0 92 2d 02 	sts	0x022D, r13
     fae:	c0 92 2c 02 	sts	0x022C, r12
     fb2:	d0 92 2d 02 	sts	0x022D, r13
     fb6:	c0 92 2c 02 	sts	0x022C, r12
     fba:	df 91       	pop	r29
     fbc:	cf 91       	pop	r28
     fbe:	1f 91       	pop	r17
     fc0:	0f 91       	pop	r16
     fc2:	ff 90       	pop	r15
     fc4:	ef 90       	pop	r14
     fc6:	df 90       	pop	r13
     fc8:	cf 90       	pop	r12
     fca:	bf 90       	pop	r11
     fcc:	af 90       	pop	r10
     fce:	9f 90       	pop	r9
     fd0:	8f 90       	pop	r8
     fd2:	7f 90       	pop	r7
     fd4:	6f 90       	pop	r6
     fd6:	08 95       	ret
     fd8:	80 91 80 00 	lds	r24, 0x0080
     fdc:	80 68       	ori	r24, 0x80	; 128
     fde:	80 93 80 00 	sts	0x0080, r24
     fe2:	c0 91 2c 02 	lds	r28, 0x022C
     fe6:	d0 91 2d 02 	lds	r29, 0x022D
     fea:	cc 15       	cp	r28, r12
     fec:	dd 05       	cpc	r29, r13
     fee:	08 f3       	brcs	.-62     	; 0xfb2 <pwm_ramp1A+0xda>
     ff0:	80 e0       	ldi	r24, 0x00	; 0
     ff2:	90 e0       	ldi	r25, 0x00	; 0
     ff4:	0e 94 de 15 	call	0x2bbc	; 0x2bbc <__floatunsisf>
     ff8:	3b 01       	movw	r6, r22
     ffa:	4c 01       	movw	r8, r24
     ffc:	20 e0       	ldi	r18, 0x00	; 0
     ffe:	30 e0       	ldi	r19, 0x00	; 0
    1000:	4a e7       	ldi	r20, 0x7A	; 122
    1002:	55 e4       	ldi	r21, 0x45	; 69
    1004:	0e 94 00 14 	call	0x2800	; 0x2800 <__mulsf3>
    1008:	7b 01       	movw	r14, r22
    100a:	8c 01       	movw	r16, r24
    100c:	e0 e9       	ldi	r30, 0x90	; 144
    100e:	ae 2e       	mov	r10, r30
    1010:	e1 e0       	ldi	r30, 0x01	; 1
    1012:	be 2e       	mov	r11, r30
    1014:	d0 93 89 00 	sts	0x0089, r29
    1018:	c0 93 88 00 	sts	0x0088, r28
    101c:	21 97       	sbiw	r28, 0x01	; 1
    101e:	c8 01       	movw	r24, r16
    1020:	b7 01       	movw	r22, r14
    1022:	20 e0       	ldi	r18, 0x00	; 0
    1024:	30 e0       	ldi	r19, 0x00	; 0
    1026:	40 e8       	ldi	r20, 0x80	; 128
    1028:	5f e3       	ldi	r21, 0x3F	; 63
    102a:	0e 94 5a 15 	call	0x2ab4	; 0x2ab4 <__ltsf2>
    102e:	88 23       	and	r24, r24
    1030:	0c f4       	brge	.+2      	; 0x1034 <pwm_ramp1A+0x15c>
    1032:	38 c0       	rjmp	.+112    	; 0x10a4 <pwm_ramp1A+0x1cc>
    1034:	c8 01       	movw	r24, r16
    1036:	b7 01       	movw	r22, r14
    1038:	20 e0       	ldi	r18, 0x00	; 0
    103a:	3f ef       	ldi	r19, 0xFF	; 255
    103c:	4f e7       	ldi	r20, 0x7F	; 127
    103e:	57 e4       	ldi	r21, 0x47	; 71
    1040:	0e 94 fa 14 	call	0x29f4	; 0x29f4 <__gtsf2>
    1044:	18 16       	cp	r1, r24
    1046:	14 f5       	brge	.+68     	; 0x108c <pwm_ramp1A+0x1b4>
    1048:	c4 01       	movw	r24, r8
    104a:	b3 01       	movw	r22, r6
    104c:	20 e0       	ldi	r18, 0x00	; 0
    104e:	30 e0       	ldi	r19, 0x00	; 0
    1050:	40 e2       	ldi	r20, 0x20	; 32
    1052:	51 e4       	ldi	r21, 0x41	; 65
    1054:	0e 94 00 14 	call	0x2800	; 0x2800 <__mulsf3>
    1058:	0e 94 2a 12 	call	0x2454	; 0x2454 <__fixunssfsi>
    105c:	cb 01       	movw	r24, r22
    105e:	67 2b       	or	r22, r23
    1060:	29 f0       	breq	.+10     	; 0x106c <pwm_ramp1A+0x194>
    1062:	f5 01       	movw	r30, r10
    1064:	31 97       	sbiw	r30, 0x01	; 1
    1066:	f1 f7       	brne	.-4      	; 0x1064 <pwm_ramp1A+0x18c>
    1068:	01 97       	sbiw	r24, 0x01	; 1
    106a:	d9 f7       	brne	.-10     	; 0x1062 <pwm_ramp1A+0x18a>
    106c:	cc 15       	cp	r28, r12
    106e:	dd 05       	cpc	r29, r13
    1070:	88 f6       	brcc	.-94     	; 0x1014 <pwm_ramp1A+0x13c>
    1072:	9f cf       	rjmp	.-194    	; 0xfb2 <pwm_ramp1A+0xda>
    1074:	c8 01       	movw	r24, r16
    1076:	b7 01       	movw	r22, r14
    1078:	0e 94 2a 12 	call	0x2454	; 0x2454 <__fixunssfsi>
    107c:	cb 01       	movw	r24, r22
    107e:	01 97       	sbiw	r24, 0x01	; 1
    1080:	f1 f7       	brne	.-4      	; 0x107e <pwm_ramp1A+0x1a6>
    1082:	cc 16       	cp	r12, r28
    1084:	dd 06       	cpc	r13, r29
    1086:	08 f0       	brcs	.+2      	; 0x108a <pwm_ramp1A+0x1b2>
    1088:	60 cf       	rjmp	.-320    	; 0xf4a <pwm_ramp1A+0x72>
    108a:	8f cf       	rjmp	.-226    	; 0xfaa <pwm_ramp1A+0xd2>
    108c:	c8 01       	movw	r24, r16
    108e:	b7 01       	movw	r22, r14
    1090:	0e 94 2a 12 	call	0x2454	; 0x2454 <__fixunssfsi>
    1094:	cb 01       	movw	r24, r22
    1096:	01 97       	sbiw	r24, 0x01	; 1
    1098:	f1 f7       	brne	.-4      	; 0x1096 <pwm_ramp1A+0x1be>
    109a:	cc 15       	cp	r28, r12
    109c:	dd 05       	cpc	r29, r13
    109e:	08 f0       	brcs	.+2      	; 0x10a2 <pwm_ramp1A+0x1ca>
    10a0:	b9 cf       	rjmp	.-142    	; 0x1014 <pwm_ramp1A+0x13c>
    10a2:	87 cf       	rjmp	.-242    	; 0xfb2 <pwm_ramp1A+0xda>
    10a4:	61 e0       	ldi	r22, 0x01	; 1
    10a6:	70 e0       	ldi	r23, 0x00	; 0
    10a8:	f5 cf       	rjmp	.-22     	; 0x1094 <pwm_ramp1A+0x1bc>
    10aa:	61 e0       	ldi	r22, 0x01	; 1
    10ac:	70 e0       	ldi	r23, 0x00	; 0
    10ae:	e6 cf       	rjmp	.-52     	; 0x107c <pwm_ramp1A+0x1a4>
    10b0:	80 91 80 00 	lds	r24, 0x0080
    10b4:	80 68       	ori	r24, 0x80	; 128
    10b6:	80 93 80 00 	sts	0x0080, r24
    10ba:	10 92 89 00 	sts	0x0089, r1
    10be:	10 92 88 00 	sts	0x0088, r1
    10c2:	7b cf       	rjmp	.-266    	; 0xfba <pwm_ramp1A+0xe2>

000010c4 <pwm_rampUp1A>:
    10c4:	6f 92       	push	r6
    10c6:	7f 92       	push	r7
    10c8:	8f 92       	push	r8
    10ca:	9f 92       	push	r9
    10cc:	af 92       	push	r10
    10ce:	bf 92       	push	r11
    10d0:	cf 92       	push	r12
    10d2:	df 92       	push	r13
    10d4:	ef 92       	push	r14
    10d6:	ff 92       	push	r15
    10d8:	0f 93       	push	r16
    10da:	1f 93       	push	r17
    10dc:	cf 93       	push	r28
    10de:	df 93       	push	r29
    10e0:	5c 01       	movw	r10, r24
    10e2:	80 91 80 00 	lds	r24, 0x0080
    10e6:	80 68       	ori	r24, 0x80	; 128
    10e8:	80 93 80 00 	sts	0x0080, r24
    10ec:	c0 91 2c 02 	lds	r28, 0x022C
    10f0:	d0 91 2d 02 	lds	r29, 0x022D
    10f4:	ac 16       	cp	r10, r28
    10f6:	bd 06       	cpc	r11, r29
    10f8:	08 f4       	brcc	.+2      	; 0x10fc <pwm_rampUp1A+0x38>
    10fa:	41 c0       	rjmp	.+130    	; 0x117e <pwm_rampUp1A+0xba>
    10fc:	80 e0       	ldi	r24, 0x00	; 0
    10fe:	90 e0       	ldi	r25, 0x00	; 0
    1100:	0e 94 de 15 	call	0x2bbc	; 0x2bbc <__floatunsisf>
    1104:	3b 01       	movw	r6, r22
    1106:	4c 01       	movw	r8, r24
    1108:	20 e0       	ldi	r18, 0x00	; 0
    110a:	30 e0       	ldi	r19, 0x00	; 0
    110c:	4a e7       	ldi	r20, 0x7A	; 122
    110e:	55 e4       	ldi	r21, 0x45	; 69
    1110:	0e 94 00 14 	call	0x2800	; 0x2800 <__mulsf3>
    1114:	7b 01       	movw	r14, r22
    1116:	8c 01       	movw	r16, r24
    1118:	a0 e9       	ldi	r26, 0x90	; 144
    111a:	ca 2e       	mov	r12, r26
    111c:	a1 e0       	ldi	r26, 0x01	; 1
    111e:	da 2e       	mov	r13, r26
    1120:	d0 93 89 00 	sts	0x0089, r29
    1124:	c0 93 88 00 	sts	0x0088, r28
    1128:	21 96       	adiw	r28, 0x01	; 1
    112a:	c8 01       	movw	r24, r16
    112c:	b7 01       	movw	r22, r14
    112e:	20 e0       	ldi	r18, 0x00	; 0
    1130:	30 e0       	ldi	r19, 0x00	; 0
    1132:	40 e8       	ldi	r20, 0x80	; 128
    1134:	5f e3       	ldi	r21, 0x3F	; 63
    1136:	0e 94 5a 15 	call	0x2ab4	; 0x2ab4 <__ltsf2>
    113a:	88 23       	and	r24, r24
    113c:	0c f4       	brge	.+2      	; 0x1140 <pwm_rampUp1A+0x7c>
    113e:	3e c0       	rjmp	.+124    	; 0x11bc <pwm_rampUp1A+0xf8>
    1140:	c8 01       	movw	r24, r16
    1142:	b7 01       	movw	r22, r14
    1144:	20 e0       	ldi	r18, 0x00	; 0
    1146:	3f ef       	ldi	r19, 0xFF	; 255
    1148:	4f e7       	ldi	r20, 0x7F	; 127
    114a:	57 e4       	ldi	r21, 0x47	; 71
    114c:	0e 94 fa 14 	call	0x29f4	; 0x29f4 <__gtsf2>
    1150:	18 16       	cp	r1, r24
    1152:	44 f5       	brge	.+80     	; 0x11a4 <pwm_rampUp1A+0xe0>
    1154:	c4 01       	movw	r24, r8
    1156:	b3 01       	movw	r22, r6
    1158:	20 e0       	ldi	r18, 0x00	; 0
    115a:	30 e0       	ldi	r19, 0x00	; 0
    115c:	40 e2       	ldi	r20, 0x20	; 32
    115e:	51 e4       	ldi	r21, 0x41	; 65
    1160:	0e 94 00 14 	call	0x2800	; 0x2800 <__mulsf3>
    1164:	0e 94 2a 12 	call	0x2454	; 0x2454 <__fixunssfsi>
    1168:	cb 01       	movw	r24, r22
    116a:	67 2b       	or	r22, r23
    116c:	29 f0       	breq	.+10     	; 0x1178 <pwm_rampUp1A+0xb4>
    116e:	f6 01       	movw	r30, r12
    1170:	31 97       	sbiw	r30, 0x01	; 1
    1172:	f1 f7       	brne	.-4      	; 0x1170 <pwm_rampUp1A+0xac>
    1174:	01 97       	sbiw	r24, 0x01	; 1
    1176:	d9 f7       	brne	.-10     	; 0x116e <pwm_rampUp1A+0xaa>
    1178:	ac 16       	cp	r10, r28
    117a:	bd 06       	cpc	r11, r29
    117c:	88 f6       	brcc	.-94     	; 0x1120 <pwm_rampUp1A+0x5c>
    117e:	b0 92 2d 02 	sts	0x022D, r11
    1182:	a0 92 2c 02 	sts	0x022C, r10
    1186:	df 91       	pop	r29
    1188:	cf 91       	pop	r28
    118a:	1f 91       	pop	r17
    118c:	0f 91       	pop	r16
    118e:	ff 90       	pop	r15
    1190:	ef 90       	pop	r14
    1192:	df 90       	pop	r13
    1194:	cf 90       	pop	r12
    1196:	bf 90       	pop	r11
    1198:	af 90       	pop	r10
    119a:	9f 90       	pop	r9
    119c:	8f 90       	pop	r8
    119e:	7f 90       	pop	r7
    11a0:	6f 90       	pop	r6
    11a2:	08 95       	ret
    11a4:	c8 01       	movw	r24, r16
    11a6:	b7 01       	movw	r22, r14
    11a8:	0e 94 2a 12 	call	0x2454	; 0x2454 <__fixunssfsi>
    11ac:	cb 01       	movw	r24, r22
    11ae:	01 97       	sbiw	r24, 0x01	; 1
    11b0:	f1 f7       	brne	.-4      	; 0x11ae <pwm_rampUp1A+0xea>
    11b2:	ac 16       	cp	r10, r28
    11b4:	bd 06       	cpc	r11, r29
    11b6:	08 f0       	brcs	.+2      	; 0x11ba <pwm_rampUp1A+0xf6>
    11b8:	b3 cf       	rjmp	.-154    	; 0x1120 <pwm_rampUp1A+0x5c>
    11ba:	e1 cf       	rjmp	.-62     	; 0x117e <pwm_rampUp1A+0xba>
    11bc:	61 e0       	ldi	r22, 0x01	; 1
    11be:	70 e0       	ldi	r23, 0x00	; 0
    11c0:	f5 cf       	rjmp	.-22     	; 0x11ac <pwm_rampUp1A+0xe8>

000011c2 <pwm_rampDown1A>:
    11c2:	6f 92       	push	r6
    11c4:	7f 92       	push	r7
    11c6:	8f 92       	push	r8
    11c8:	9f 92       	push	r9
    11ca:	af 92       	push	r10
    11cc:	bf 92       	push	r11
    11ce:	cf 92       	push	r12
    11d0:	df 92       	push	r13
    11d2:	ef 92       	push	r14
    11d4:	ff 92       	push	r15
    11d6:	0f 93       	push	r16
    11d8:	1f 93       	push	r17
    11da:	cf 93       	push	r28
    11dc:	df 93       	push	r29
    11de:	6c 01       	movw	r12, r24
    11e0:	00 97       	sbiw	r24, 0x00	; 0
    11e2:	09 f4       	brne	.+2      	; 0x11e6 <pwm_rampDown1A+0x24>
    11e4:	70 c0       	rjmp	.+224    	; 0x12c6 <pwm_rampDown1A+0x104>
    11e6:	80 91 80 00 	lds	r24, 0x0080
    11ea:	80 68       	ori	r24, 0x80	; 128
    11ec:	80 93 80 00 	sts	0x0080, r24
    11f0:	c0 91 2c 02 	lds	r28, 0x022C
    11f4:	d0 91 2d 02 	lds	r29, 0x022D
    11f8:	cc 15       	cp	r28, r12
    11fa:	dd 05       	cpc	r29, r13
    11fc:	08 f4       	brcc	.+2      	; 0x1200 <pwm_rampDown1A+0x3e>
    11fe:	41 c0       	rjmp	.+130    	; 0x1282 <pwm_rampDown1A+0xc0>
    1200:	80 e0       	ldi	r24, 0x00	; 0
    1202:	90 e0       	ldi	r25, 0x00	; 0
    1204:	0e 94 de 15 	call	0x2bbc	; 0x2bbc <__floatunsisf>
    1208:	3b 01       	movw	r6, r22
    120a:	4c 01       	movw	r8, r24
    120c:	20 e0       	ldi	r18, 0x00	; 0
    120e:	30 e0       	ldi	r19, 0x00	; 0
    1210:	4a e7       	ldi	r20, 0x7A	; 122
    1212:	55 e4       	ldi	r21, 0x45	; 69
    1214:	0e 94 00 14 	call	0x2800	; 0x2800 <__mulsf3>
    1218:	7b 01       	movw	r14, r22
    121a:	8c 01       	movw	r16, r24
    121c:	b0 e9       	ldi	r27, 0x90	; 144
    121e:	ab 2e       	mov	r10, r27
    1220:	b1 e0       	ldi	r27, 0x01	; 1
    1222:	bb 2e       	mov	r11, r27
    1224:	d0 93 89 00 	sts	0x0089, r29
    1228:	c0 93 88 00 	sts	0x0088, r28
    122c:	21 97       	sbiw	r28, 0x01	; 1
    122e:	c8 01       	movw	r24, r16
    1230:	b7 01       	movw	r22, r14
    1232:	20 e0       	ldi	r18, 0x00	; 0
    1234:	30 e0       	ldi	r19, 0x00	; 0
    1236:	40 e8       	ldi	r20, 0x80	; 128
    1238:	5f e3       	ldi	r21, 0x3F	; 63
    123a:	0e 94 5a 15 	call	0x2ab4	; 0x2ab4 <__ltsf2>
    123e:	88 23       	and	r24, r24
    1240:	0c f4       	brge	.+2      	; 0x1244 <pwm_rampDown1A+0x82>
    1242:	3e c0       	rjmp	.+124    	; 0x12c0 <pwm_rampDown1A+0xfe>
    1244:	c8 01       	movw	r24, r16
    1246:	b7 01       	movw	r22, r14
    1248:	20 e0       	ldi	r18, 0x00	; 0
    124a:	3f ef       	ldi	r19, 0xFF	; 255
    124c:	4f e7       	ldi	r20, 0x7F	; 127
    124e:	57 e4       	ldi	r21, 0x47	; 71
    1250:	0e 94 fa 14 	call	0x29f4	; 0x29f4 <__gtsf2>
    1254:	18 16       	cp	r1, r24
    1256:	44 f5       	brge	.+80     	; 0x12a8 <pwm_rampDown1A+0xe6>
    1258:	c4 01       	movw	r24, r8
    125a:	b3 01       	movw	r22, r6
    125c:	20 e0       	ldi	r18, 0x00	; 0
    125e:	30 e0       	ldi	r19, 0x00	; 0
    1260:	40 e2       	ldi	r20, 0x20	; 32
    1262:	51 e4       	ldi	r21, 0x41	; 65
    1264:	0e 94 00 14 	call	0x2800	; 0x2800 <__mulsf3>
    1268:	0e 94 2a 12 	call	0x2454	; 0x2454 <__fixunssfsi>
    126c:	cb 01       	movw	r24, r22
    126e:	67 2b       	or	r22, r23
    1270:	29 f0       	breq	.+10     	; 0x127c <pwm_rampDown1A+0xba>
    1272:	f5 01       	movw	r30, r10
    1274:	31 97       	sbiw	r30, 0x01	; 1
    1276:	f1 f7       	brne	.-4      	; 0x1274 <pwm_rampDown1A+0xb2>
    1278:	01 97       	sbiw	r24, 0x01	; 1
    127a:	d9 f7       	brne	.-10     	; 0x1272 <pwm_rampDown1A+0xb0>
    127c:	cc 15       	cp	r28, r12
    127e:	dd 05       	cpc	r29, r13
    1280:	88 f6       	brcc	.-94     	; 0x1224 <pwm_rampDown1A+0x62>
    1282:	d0 92 2d 02 	sts	0x022D, r13
    1286:	c0 92 2c 02 	sts	0x022C, r12
    128a:	df 91       	pop	r29
    128c:	cf 91       	pop	r28
    128e:	1f 91       	pop	r17
    1290:	0f 91       	pop	r16
    1292:	ff 90       	pop	r15
    1294:	ef 90       	pop	r14
    1296:	df 90       	pop	r13
    1298:	cf 90       	pop	r12
    129a:	bf 90       	pop	r11
    129c:	af 90       	pop	r10
    129e:	9f 90       	pop	r9
    12a0:	8f 90       	pop	r8
    12a2:	7f 90       	pop	r7
    12a4:	6f 90       	pop	r6
    12a6:	08 95       	ret
    12a8:	c8 01       	movw	r24, r16
    12aa:	b7 01       	movw	r22, r14
    12ac:	0e 94 2a 12 	call	0x2454	; 0x2454 <__fixunssfsi>
    12b0:	cb 01       	movw	r24, r22
    12b2:	01 97       	sbiw	r24, 0x01	; 1
    12b4:	f1 f7       	brne	.-4      	; 0x12b2 <pwm_rampDown1A+0xf0>
    12b6:	cc 15       	cp	r28, r12
    12b8:	dd 05       	cpc	r29, r13
    12ba:	08 f0       	brcs	.+2      	; 0x12be <pwm_rampDown1A+0xfc>
    12bc:	b3 cf       	rjmp	.-154    	; 0x1224 <pwm_rampDown1A+0x62>
    12be:	e1 cf       	rjmp	.-62     	; 0x1282 <pwm_rampDown1A+0xc0>
    12c0:	61 e0       	ldi	r22, 0x01	; 1
    12c2:	70 e0       	ldi	r23, 0x00	; 0
    12c4:	f5 cf       	rjmp	.-22     	; 0x12b0 <pwm_rampDown1A+0xee>
    12c6:	80 91 80 00 	lds	r24, 0x0080
    12ca:	80 68       	ori	r24, 0x80	; 128
    12cc:	80 93 80 00 	sts	0x0080, r24
    12d0:	10 92 89 00 	sts	0x0089, r1
    12d4:	10 92 88 00 	sts	0x0088, r1
    12d8:	d4 cf       	rjmp	.-88     	; 0x1282 <pwm_rampDown1A+0xc0>

000012da <pwm_ramp1B>:
    12da:	6f 92       	push	r6
    12dc:	7f 92       	push	r7
    12de:	8f 92       	push	r8
    12e0:	9f 92       	push	r9
    12e2:	af 92       	push	r10
    12e4:	bf 92       	push	r11
    12e6:	cf 92       	push	r12
    12e8:	df 92       	push	r13
    12ea:	ef 92       	push	r14
    12ec:	ff 92       	push	r15
    12ee:	0f 93       	push	r16
    12f0:	1f 93       	push	r17
    12f2:	cf 93       	push	r28
    12f4:	df 93       	push	r29
    12f6:	6c 01       	movw	r12, r24
    12f8:	00 97       	sbiw	r24, 0x00	; 0
    12fa:	09 f0       	breq	.+2      	; 0x12fe <pwm_ramp1B+0x24>
    12fc:	79 c0       	rjmp	.+242    	; 0x13f0 <pwm_ramp1B+0x116>
    12fe:	80 91 80 00 	lds	r24, 0x0080
    1302:	80 62       	ori	r24, 0x20	; 32
    1304:	80 93 80 00 	sts	0x0080, r24
    1308:	10 92 8b 00 	sts	0x008B, r1
    130c:	10 92 8a 00 	sts	0x008A, r1
    1310:	80 91 1a 02 	lds	r24, 0x021A
    1314:	90 91 1b 02 	lds	r25, 0x021B
    1318:	80 91 80 00 	lds	r24, 0x0080
    131c:	80 62       	ori	r24, 0x20	; 32
    131e:	80 93 80 00 	sts	0x0080, r24
    1322:	c0 91 1a 02 	lds	r28, 0x021A
    1326:	d0 91 1b 02 	lds	r29, 0x021B
    132a:	80 e0       	ldi	r24, 0x00	; 0
    132c:	90 e0       	ldi	r25, 0x00	; 0
    132e:	0e 94 de 15 	call	0x2bbc	; 0x2bbc <__floatunsisf>
    1332:	3b 01       	movw	r6, r22
    1334:	4c 01       	movw	r8, r24
    1336:	20 e0       	ldi	r18, 0x00	; 0
    1338:	30 e0       	ldi	r19, 0x00	; 0
    133a:	4a e7       	ldi	r20, 0x7A	; 122
    133c:	55 e4       	ldi	r21, 0x45	; 69
    133e:	0e 94 00 14 	call	0x2800	; 0x2800 <__mulsf3>
    1342:	7b 01       	movw	r14, r22
    1344:	8c 01       	movw	r16, r24
    1346:	90 e9       	ldi	r25, 0x90	; 144
    1348:	a9 2e       	mov	r10, r25
    134a:	91 e0       	ldi	r25, 0x01	; 1
    134c:	b9 2e       	mov	r11, r25
    134e:	d0 93 8b 00 	sts	0x008B, r29
    1352:	c0 93 8a 00 	sts	0x008A, r28
    1356:	21 97       	sbiw	r28, 0x01	; 1
    1358:	c8 01       	movw	r24, r16
    135a:	b7 01       	movw	r22, r14
    135c:	20 e0       	ldi	r18, 0x00	; 0
    135e:	30 e0       	ldi	r19, 0x00	; 0
    1360:	40 e8       	ldi	r20, 0x80	; 128
    1362:	5f e3       	ldi	r21, 0x3F	; 63
    1364:	0e 94 5a 15 	call	0x2ab4	; 0x2ab4 <__ltsf2>
    1368:	88 23       	and	r24, r24
    136a:	0c f4       	brge	.+2      	; 0x136e <pwm_ramp1B+0x94>
    136c:	3e c0       	rjmp	.+124    	; 0x13ea <pwm_ramp1B+0x110>
    136e:	c8 01       	movw	r24, r16
    1370:	b7 01       	movw	r22, r14
    1372:	20 e0       	ldi	r18, 0x00	; 0
    1374:	3f ef       	ldi	r19, 0xFF	; 255
    1376:	4f e7       	ldi	r20, 0x7F	; 127
    1378:	57 e4       	ldi	r21, 0x47	; 71
    137a:	0e 94 fa 14 	call	0x29f4	; 0x29f4 <__gtsf2>
    137e:	18 16       	cp	r1, r24
    1380:	44 f5       	brge	.+80     	; 0x13d2 <pwm_ramp1B+0xf8>
    1382:	c4 01       	movw	r24, r8
    1384:	b3 01       	movw	r22, r6
    1386:	20 e0       	ldi	r18, 0x00	; 0
    1388:	30 e0       	ldi	r19, 0x00	; 0
    138a:	40 e2       	ldi	r20, 0x20	; 32
    138c:	51 e4       	ldi	r21, 0x41	; 65
    138e:	0e 94 00 14 	call	0x2800	; 0x2800 <__mulsf3>
    1392:	0e 94 2a 12 	call	0x2454	; 0x2454 <__fixunssfsi>
    1396:	cb 01       	movw	r24, r22
    1398:	67 2b       	or	r22, r23
    139a:	29 f0       	breq	.+10     	; 0x13a6 <pwm_ramp1B+0xcc>
    139c:	f5 01       	movw	r30, r10
    139e:	31 97       	sbiw	r30, 0x01	; 1
    13a0:	f1 f7       	brne	.-4      	; 0x139e <pwm_ramp1B+0xc4>
    13a2:	01 97       	sbiw	r24, 0x01	; 1
    13a4:	d9 f7       	brne	.-10     	; 0x139c <pwm_ramp1B+0xc2>
    13a6:	cc 15       	cp	r28, r12
    13a8:	dd 05       	cpc	r29, r13
    13aa:	88 f6       	brcc	.-94     	; 0x134e <pwm_ramp1B+0x74>
    13ac:	d0 92 1b 02 	sts	0x021B, r13
    13b0:	c0 92 1a 02 	sts	0x021A, r12
    13b4:	df 91       	pop	r29
    13b6:	cf 91       	pop	r28
    13b8:	1f 91       	pop	r17
    13ba:	0f 91       	pop	r16
    13bc:	ff 90       	pop	r15
    13be:	ef 90       	pop	r14
    13c0:	df 90       	pop	r13
    13c2:	cf 90       	pop	r12
    13c4:	bf 90       	pop	r11
    13c6:	af 90       	pop	r10
    13c8:	9f 90       	pop	r9
    13ca:	8f 90       	pop	r8
    13cc:	7f 90       	pop	r7
    13ce:	6f 90       	pop	r6
    13d0:	08 95       	ret
    13d2:	c8 01       	movw	r24, r16
    13d4:	b7 01       	movw	r22, r14
    13d6:	0e 94 2a 12 	call	0x2454	; 0x2454 <__fixunssfsi>
    13da:	cb 01       	movw	r24, r22
    13dc:	01 97       	sbiw	r24, 0x01	; 1
    13de:	f1 f7       	brne	.-4      	; 0x13dc <pwm_ramp1B+0x102>
    13e0:	cc 15       	cp	r28, r12
    13e2:	dd 05       	cpc	r29, r13
    13e4:	08 f0       	brcs	.+2      	; 0x13e8 <pwm_ramp1B+0x10e>
    13e6:	b3 cf       	rjmp	.-154    	; 0x134e <pwm_ramp1B+0x74>
    13e8:	e1 cf       	rjmp	.-62     	; 0x13ac <pwm_ramp1B+0xd2>
    13ea:	61 e0       	ldi	r22, 0x01	; 1
    13ec:	70 e0       	ldi	r23, 0x00	; 0
    13ee:	f5 cf       	rjmp	.-22     	; 0x13da <pwm_ramp1B+0x100>
    13f0:	80 91 1a 02 	lds	r24, 0x021A
    13f4:	90 91 1b 02 	lds	r25, 0x021B
    13f8:	8c 15       	cp	r24, r12
    13fa:	9d 05       	cpc	r25, r13
    13fc:	08 f0       	brcs	.+2      	; 0x1400 <pwm_ramp1B+0x126>
    13fe:	5b c0       	rjmp	.+182    	; 0x14b6 <pwm_ramp1B+0x1dc>
    1400:	80 91 80 00 	lds	r24, 0x0080
    1404:	80 62       	ori	r24, 0x20	; 32
    1406:	80 93 80 00 	sts	0x0080, r24
    140a:	c0 91 1a 02 	lds	r28, 0x021A
    140e:	d0 91 1b 02 	lds	r29, 0x021B
    1412:	cc 16       	cp	r12, r28
    1414:	dd 06       	cpc	r13, r29
    1416:	50 f2       	brcs	.-108    	; 0x13ac <pwm_ramp1B+0xd2>
    1418:	80 e0       	ldi	r24, 0x00	; 0
    141a:	90 e0       	ldi	r25, 0x00	; 0
    141c:	0e 94 de 15 	call	0x2bbc	; 0x2bbc <__floatunsisf>
    1420:	3b 01       	movw	r6, r22
    1422:	4c 01       	movw	r8, r24
    1424:	20 e0       	ldi	r18, 0x00	; 0
    1426:	30 e0       	ldi	r19, 0x00	; 0
    1428:	4a e7       	ldi	r20, 0x7A	; 122
    142a:	55 e4       	ldi	r21, 0x45	; 69
    142c:	0e 94 00 14 	call	0x2800	; 0x2800 <__mulsf3>
    1430:	7b 01       	movw	r14, r22
    1432:	8c 01       	movw	r16, r24
    1434:	80 e9       	ldi	r24, 0x90	; 144
    1436:	a8 2e       	mov	r10, r24
    1438:	81 e0       	ldi	r24, 0x01	; 1
    143a:	b8 2e       	mov	r11, r24
    143c:	d0 93 8b 00 	sts	0x008B, r29
    1440:	c0 93 8a 00 	sts	0x008A, r28
    1444:	21 96       	adiw	r28, 0x01	; 1
    1446:	c8 01       	movw	r24, r16
    1448:	b7 01       	movw	r22, r14
    144a:	20 e0       	ldi	r18, 0x00	; 0
    144c:	30 e0       	ldi	r19, 0x00	; 0
    144e:	40 e8       	ldi	r20, 0x80	; 128
    1450:	5f e3       	ldi	r21, 0x3F	; 63
    1452:	0e 94 5a 15 	call	0x2ab4	; 0x2ab4 <__ltsf2>
    1456:	88 23       	and	r24, r24
    1458:	5c f1       	brlt	.+86     	; 0x14b0 <pwm_ramp1B+0x1d6>
    145a:	c8 01       	movw	r24, r16
    145c:	b7 01       	movw	r22, r14
    145e:	20 e0       	ldi	r18, 0x00	; 0
    1460:	3f ef       	ldi	r19, 0xFF	; 255
    1462:	4f e7       	ldi	r20, 0x7F	; 127
    1464:	57 e4       	ldi	r21, 0x47	; 71
    1466:	0e 94 fa 14 	call	0x29f4	; 0x29f4 <__gtsf2>
    146a:	18 16       	cp	r1, r24
    146c:	b4 f4       	brge	.+44     	; 0x149a <pwm_ramp1B+0x1c0>
    146e:	c4 01       	movw	r24, r8
    1470:	b3 01       	movw	r22, r6
    1472:	20 e0       	ldi	r18, 0x00	; 0
    1474:	30 e0       	ldi	r19, 0x00	; 0
    1476:	40 e2       	ldi	r20, 0x20	; 32
    1478:	51 e4       	ldi	r21, 0x41	; 65
    147a:	0e 94 00 14 	call	0x2800	; 0x2800 <__mulsf3>
    147e:	0e 94 2a 12 	call	0x2454	; 0x2454 <__fixunssfsi>
    1482:	cb 01       	movw	r24, r22
    1484:	67 2b       	or	r22, r23
    1486:	29 f0       	breq	.+10     	; 0x1492 <pwm_ramp1B+0x1b8>
    1488:	f5 01       	movw	r30, r10
    148a:	31 97       	sbiw	r30, 0x01	; 1
    148c:	f1 f7       	brne	.-4      	; 0x148a <pwm_ramp1B+0x1b0>
    148e:	01 97       	sbiw	r24, 0x01	; 1
    1490:	d9 f7       	brne	.-10     	; 0x1488 <pwm_ramp1B+0x1ae>
    1492:	cc 16       	cp	r12, r28
    1494:	dd 06       	cpc	r13, r29
    1496:	90 f6       	brcc	.-92     	; 0x143c <pwm_ramp1B+0x162>
    1498:	89 cf       	rjmp	.-238    	; 0x13ac <pwm_ramp1B+0xd2>
    149a:	c8 01       	movw	r24, r16
    149c:	b7 01       	movw	r22, r14
    149e:	0e 94 2a 12 	call	0x2454	; 0x2454 <__fixunssfsi>
    14a2:	cb 01       	movw	r24, r22
    14a4:	01 97       	sbiw	r24, 0x01	; 1
    14a6:	f1 f7       	brne	.-4      	; 0x14a4 <pwm_ramp1B+0x1ca>
    14a8:	cc 16       	cp	r12, r28
    14aa:	dd 06       	cpc	r13, r29
    14ac:	38 f6       	brcc	.-114    	; 0x143c <pwm_ramp1B+0x162>
    14ae:	7e cf       	rjmp	.-260    	; 0x13ac <pwm_ramp1B+0xd2>
    14b0:	61 e0       	ldi	r22, 0x01	; 1
    14b2:	70 e0       	ldi	r23, 0x00	; 0
    14b4:	f6 cf       	rjmp	.-20     	; 0x14a2 <pwm_ramp1B+0x1c8>
    14b6:	80 91 80 00 	lds	r24, 0x0080
    14ba:	80 62       	ori	r24, 0x20	; 32
    14bc:	80 93 80 00 	sts	0x0080, r24
    14c0:	c0 91 1a 02 	lds	r28, 0x021A
    14c4:	d0 91 1b 02 	lds	r29, 0x021B
    14c8:	cc 15       	cp	r28, r12
    14ca:	dd 05       	cpc	r29, r13
    14cc:	08 f4       	brcc	.+2      	; 0x14d0 <pwm_ramp1B+0x1f6>
    14ce:	6e cf       	rjmp	.-292    	; 0x13ac <pwm_ramp1B+0xd2>
    14d0:	2c cf       	rjmp	.-424    	; 0x132a <pwm_ramp1B+0x50>

000014d2 <pwm_rampUp1B>:
    14d2:	6f 92       	push	r6
    14d4:	7f 92       	push	r7
    14d6:	8f 92       	push	r8
    14d8:	9f 92       	push	r9
    14da:	af 92       	push	r10
    14dc:	bf 92       	push	r11
    14de:	cf 92       	push	r12
    14e0:	df 92       	push	r13
    14e2:	ef 92       	push	r14
    14e4:	ff 92       	push	r15
    14e6:	0f 93       	push	r16
    14e8:	1f 93       	push	r17
    14ea:	cf 93       	push	r28
    14ec:	df 93       	push	r29
    14ee:	5c 01       	movw	r10, r24
    14f0:	80 91 80 00 	lds	r24, 0x0080
    14f4:	80 62       	ori	r24, 0x20	; 32
    14f6:	80 93 80 00 	sts	0x0080, r24
    14fa:	c0 91 1a 02 	lds	r28, 0x021A
    14fe:	d0 91 1b 02 	lds	r29, 0x021B
    1502:	ac 16       	cp	r10, r28
    1504:	bd 06       	cpc	r11, r29
    1506:	08 f4       	brcc	.+2      	; 0x150a <pwm_rampUp1B+0x38>
    1508:	41 c0       	rjmp	.+130    	; 0x158c <pwm_rampUp1B+0xba>
    150a:	80 e0       	ldi	r24, 0x00	; 0
    150c:	90 e0       	ldi	r25, 0x00	; 0
    150e:	0e 94 de 15 	call	0x2bbc	; 0x2bbc <__floatunsisf>
    1512:	3b 01       	movw	r6, r22
    1514:	4c 01       	movw	r8, r24
    1516:	20 e0       	ldi	r18, 0x00	; 0
    1518:	30 e0       	ldi	r19, 0x00	; 0
    151a:	4a e7       	ldi	r20, 0x7A	; 122
    151c:	55 e4       	ldi	r21, 0x45	; 69
    151e:	0e 94 00 14 	call	0x2800	; 0x2800 <__mulsf3>
    1522:	7b 01       	movw	r14, r22
    1524:	8c 01       	movw	r16, r24
    1526:	20 e9       	ldi	r18, 0x90	; 144
    1528:	c2 2e       	mov	r12, r18
    152a:	21 e0       	ldi	r18, 0x01	; 1
    152c:	d2 2e       	mov	r13, r18
    152e:	d0 93 8b 00 	sts	0x008B, r29
    1532:	c0 93 8a 00 	sts	0x008A, r28
    1536:	21 96       	adiw	r28, 0x01	; 1
    1538:	c8 01       	movw	r24, r16
    153a:	b7 01       	movw	r22, r14
    153c:	20 e0       	ldi	r18, 0x00	; 0
    153e:	30 e0       	ldi	r19, 0x00	; 0
    1540:	40 e8       	ldi	r20, 0x80	; 128
    1542:	5f e3       	ldi	r21, 0x3F	; 63
    1544:	0e 94 5a 15 	call	0x2ab4	; 0x2ab4 <__ltsf2>
    1548:	88 23       	and	r24, r24
    154a:	0c f4       	brge	.+2      	; 0x154e <pwm_rampUp1B+0x7c>
    154c:	3e c0       	rjmp	.+124    	; 0x15ca <pwm_rampUp1B+0xf8>
    154e:	c8 01       	movw	r24, r16
    1550:	b7 01       	movw	r22, r14
    1552:	20 e0       	ldi	r18, 0x00	; 0
    1554:	3f ef       	ldi	r19, 0xFF	; 255
    1556:	4f e7       	ldi	r20, 0x7F	; 127
    1558:	57 e4       	ldi	r21, 0x47	; 71
    155a:	0e 94 fa 14 	call	0x29f4	; 0x29f4 <__gtsf2>
    155e:	18 16       	cp	r1, r24
    1560:	44 f5       	brge	.+80     	; 0x15b2 <pwm_rampUp1B+0xe0>
    1562:	c4 01       	movw	r24, r8
    1564:	b3 01       	movw	r22, r6
    1566:	20 e0       	ldi	r18, 0x00	; 0
    1568:	30 e0       	ldi	r19, 0x00	; 0
    156a:	40 e2       	ldi	r20, 0x20	; 32
    156c:	51 e4       	ldi	r21, 0x41	; 65
    156e:	0e 94 00 14 	call	0x2800	; 0x2800 <__mulsf3>
    1572:	0e 94 2a 12 	call	0x2454	; 0x2454 <__fixunssfsi>
    1576:	cb 01       	movw	r24, r22
    1578:	67 2b       	or	r22, r23
    157a:	29 f0       	breq	.+10     	; 0x1586 <pwm_rampUp1B+0xb4>
    157c:	f6 01       	movw	r30, r12
    157e:	31 97       	sbiw	r30, 0x01	; 1
    1580:	f1 f7       	brne	.-4      	; 0x157e <pwm_rampUp1B+0xac>
    1582:	01 97       	sbiw	r24, 0x01	; 1
    1584:	d9 f7       	brne	.-10     	; 0x157c <pwm_rampUp1B+0xaa>
    1586:	ac 16       	cp	r10, r28
    1588:	bd 06       	cpc	r11, r29
    158a:	88 f6       	brcc	.-94     	; 0x152e <pwm_rampUp1B+0x5c>
    158c:	b0 92 1b 02 	sts	0x021B, r11
    1590:	a0 92 1a 02 	sts	0x021A, r10
    1594:	df 91       	pop	r29
    1596:	cf 91       	pop	r28
    1598:	1f 91       	pop	r17
    159a:	0f 91       	pop	r16
    159c:	ff 90       	pop	r15
    159e:	ef 90       	pop	r14
    15a0:	df 90       	pop	r13
    15a2:	cf 90       	pop	r12
    15a4:	bf 90       	pop	r11
    15a6:	af 90       	pop	r10
    15a8:	9f 90       	pop	r9
    15aa:	8f 90       	pop	r8
    15ac:	7f 90       	pop	r7
    15ae:	6f 90       	pop	r6
    15b0:	08 95       	ret
    15b2:	c8 01       	movw	r24, r16
    15b4:	b7 01       	movw	r22, r14
    15b6:	0e 94 2a 12 	call	0x2454	; 0x2454 <__fixunssfsi>
    15ba:	cb 01       	movw	r24, r22
    15bc:	01 97       	sbiw	r24, 0x01	; 1
    15be:	f1 f7       	brne	.-4      	; 0x15bc <pwm_rampUp1B+0xea>
    15c0:	ac 16       	cp	r10, r28
    15c2:	bd 06       	cpc	r11, r29
    15c4:	08 f0       	brcs	.+2      	; 0x15c8 <pwm_rampUp1B+0xf6>
    15c6:	b3 cf       	rjmp	.-154    	; 0x152e <pwm_rampUp1B+0x5c>
    15c8:	e1 cf       	rjmp	.-62     	; 0x158c <pwm_rampUp1B+0xba>
    15ca:	61 e0       	ldi	r22, 0x01	; 1
    15cc:	70 e0       	ldi	r23, 0x00	; 0
    15ce:	f5 cf       	rjmp	.-22     	; 0x15ba <pwm_rampUp1B+0xe8>

000015d0 <pwm_rampDown1B>:
    15d0:	6f 92       	push	r6
    15d2:	7f 92       	push	r7
    15d4:	8f 92       	push	r8
    15d6:	9f 92       	push	r9
    15d8:	af 92       	push	r10
    15da:	bf 92       	push	r11
    15dc:	cf 92       	push	r12
    15de:	df 92       	push	r13
    15e0:	ef 92       	push	r14
    15e2:	ff 92       	push	r15
    15e4:	0f 93       	push	r16
    15e6:	1f 93       	push	r17
    15e8:	cf 93       	push	r28
    15ea:	df 93       	push	r29
    15ec:	5c 01       	movw	r10, r24
    15ee:	00 97       	sbiw	r24, 0x00	; 0
    15f0:	09 f0       	breq	.+2      	; 0x15f4 <pwm_rampDown1B+0x24>
    15f2:	75 c0       	rjmp	.+234    	; 0x16de <pwm_rampDown1B+0x10e>
    15f4:	80 91 80 00 	lds	r24, 0x0080
    15f8:	80 62       	ori	r24, 0x20	; 32
    15fa:	80 93 80 00 	sts	0x0080, r24
    15fe:	10 92 8b 00 	sts	0x008B, r1
    1602:	10 92 8a 00 	sts	0x008A, r1
    1606:	80 91 80 00 	lds	r24, 0x0080
    160a:	80 62       	ori	r24, 0x20	; 32
    160c:	80 93 80 00 	sts	0x0080, r24
    1610:	c0 91 1a 02 	lds	r28, 0x021A
    1614:	d0 91 1b 02 	lds	r29, 0x021B
    1618:	80 e0       	ldi	r24, 0x00	; 0
    161a:	90 e0       	ldi	r25, 0x00	; 0
    161c:	0e 94 de 15 	call	0x2bbc	; 0x2bbc <__floatunsisf>
    1620:	3b 01       	movw	r6, r22
    1622:	4c 01       	movw	r8, r24
    1624:	20 e0       	ldi	r18, 0x00	; 0
    1626:	30 e0       	ldi	r19, 0x00	; 0
    1628:	4a e7       	ldi	r20, 0x7A	; 122
    162a:	55 e4       	ldi	r21, 0x45	; 69
    162c:	0e 94 00 14 	call	0x2800	; 0x2800 <__mulsf3>
    1630:	7b 01       	movw	r14, r22
    1632:	8c 01       	movw	r16, r24
    1634:	30 e9       	ldi	r19, 0x90	; 144
    1636:	c3 2e       	mov	r12, r19
    1638:	31 e0       	ldi	r19, 0x01	; 1
    163a:	d3 2e       	mov	r13, r19
    163c:	d0 93 8b 00 	sts	0x008B, r29
    1640:	c0 93 8a 00 	sts	0x008A, r28
    1644:	21 97       	sbiw	r28, 0x01	; 1
    1646:	c8 01       	movw	r24, r16
    1648:	b7 01       	movw	r22, r14
    164a:	20 e0       	ldi	r18, 0x00	; 0
    164c:	30 e0       	ldi	r19, 0x00	; 0
    164e:	40 e8       	ldi	r20, 0x80	; 128
    1650:	5f e3       	ldi	r21, 0x3F	; 63
    1652:	0e 94 5a 15 	call	0x2ab4	; 0x2ab4 <__ltsf2>
    1656:	88 23       	and	r24, r24
    1658:	0c f4       	brge	.+2      	; 0x165c <pwm_rampDown1B+0x8c>
    165a:	3e c0       	rjmp	.+124    	; 0x16d8 <pwm_rampDown1B+0x108>
    165c:	c8 01       	movw	r24, r16
    165e:	b7 01       	movw	r22, r14
    1660:	20 e0       	ldi	r18, 0x00	; 0
    1662:	3f ef       	ldi	r19, 0xFF	; 255
    1664:	4f e7       	ldi	r20, 0x7F	; 127
    1666:	57 e4       	ldi	r21, 0x47	; 71
    1668:	0e 94 fa 14 	call	0x29f4	; 0x29f4 <__gtsf2>
    166c:	18 16       	cp	r1, r24
    166e:	44 f5       	brge	.+80     	; 0x16c0 <pwm_rampDown1B+0xf0>
    1670:	c4 01       	movw	r24, r8
    1672:	b3 01       	movw	r22, r6
    1674:	20 e0       	ldi	r18, 0x00	; 0
    1676:	30 e0       	ldi	r19, 0x00	; 0
    1678:	40 e2       	ldi	r20, 0x20	; 32
    167a:	51 e4       	ldi	r21, 0x41	; 65
    167c:	0e 94 00 14 	call	0x2800	; 0x2800 <__mulsf3>
    1680:	0e 94 2a 12 	call	0x2454	; 0x2454 <__fixunssfsi>
    1684:	cb 01       	movw	r24, r22
    1686:	67 2b       	or	r22, r23
    1688:	29 f0       	breq	.+10     	; 0x1694 <pwm_rampDown1B+0xc4>
    168a:	f6 01       	movw	r30, r12
    168c:	31 97       	sbiw	r30, 0x01	; 1
    168e:	f1 f7       	brne	.-4      	; 0x168c <pwm_rampDown1B+0xbc>
    1690:	01 97       	sbiw	r24, 0x01	; 1
    1692:	d9 f7       	brne	.-10     	; 0x168a <pwm_rampDown1B+0xba>
    1694:	ca 15       	cp	r28, r10
    1696:	db 05       	cpc	r29, r11
    1698:	88 f6       	brcc	.-94     	; 0x163c <pwm_rampDown1B+0x6c>
    169a:	b0 92 1b 02 	sts	0x021B, r11
    169e:	a0 92 1a 02 	sts	0x021A, r10
    16a2:	df 91       	pop	r29
    16a4:	cf 91       	pop	r28
    16a6:	1f 91       	pop	r17
    16a8:	0f 91       	pop	r16
    16aa:	ff 90       	pop	r15
    16ac:	ef 90       	pop	r14
    16ae:	df 90       	pop	r13
    16b0:	cf 90       	pop	r12
    16b2:	bf 90       	pop	r11
    16b4:	af 90       	pop	r10
    16b6:	9f 90       	pop	r9
    16b8:	8f 90       	pop	r8
    16ba:	7f 90       	pop	r7
    16bc:	6f 90       	pop	r6
    16be:	08 95       	ret
    16c0:	c8 01       	movw	r24, r16
    16c2:	b7 01       	movw	r22, r14
    16c4:	0e 94 2a 12 	call	0x2454	; 0x2454 <__fixunssfsi>
    16c8:	cb 01       	movw	r24, r22
    16ca:	01 97       	sbiw	r24, 0x01	; 1
    16cc:	f1 f7       	brne	.-4      	; 0x16ca <pwm_rampDown1B+0xfa>
    16ce:	ca 15       	cp	r28, r10
    16d0:	db 05       	cpc	r29, r11
    16d2:	08 f0       	brcs	.+2      	; 0x16d6 <pwm_rampDown1B+0x106>
    16d4:	b3 cf       	rjmp	.-154    	; 0x163c <pwm_rampDown1B+0x6c>
    16d6:	e1 cf       	rjmp	.-62     	; 0x169a <pwm_rampDown1B+0xca>
    16d8:	61 e0       	ldi	r22, 0x01	; 1
    16da:	70 e0       	ldi	r23, 0x00	; 0
    16dc:	f5 cf       	rjmp	.-22     	; 0x16c8 <pwm_rampDown1B+0xf8>
    16de:	80 91 80 00 	lds	r24, 0x0080
    16e2:	80 62       	ori	r24, 0x20	; 32
    16e4:	80 93 80 00 	sts	0x0080, r24
    16e8:	c0 91 1a 02 	lds	r28, 0x021A
    16ec:	d0 91 1b 02 	lds	r29, 0x021B
    16f0:	ca 15       	cp	r28, r10
    16f2:	db 05       	cpc	r29, r11
    16f4:	08 f0       	brcs	.+2      	; 0x16f8 <pwm_rampDown1B+0x128>
    16f6:	90 cf       	rjmp	.-224    	; 0x1618 <pwm_rampDown1B+0x48>
    16f8:	d0 cf       	rjmp	.-96     	; 0x169a <pwm_rampDown1B+0xca>

000016fa <pwm_setup2>:
    16fa:	e1 eb       	ldi	r30, 0xB1	; 177
    16fc:	f0 e0       	ldi	r31, 0x00	; 0
    16fe:	80 81       	ld	r24, Z
    1700:	84 60       	ori	r24, 0x04	; 4
    1702:	80 83       	st	Z, r24
    1704:	e0 eb       	ldi	r30, 0xB0	; 176
    1706:	f0 e0       	ldi	r31, 0x00	; 0
    1708:	80 81       	ld	r24, Z
    170a:	81 60       	ori	r24, 0x01	; 1
    170c:	80 83       	st	Z, r24
    170e:	53 9a       	sbi	0x0a, 3	; 10
    1710:	23 9a       	sbi	0x04, 3	; 4
    1712:	10 92 17 02 	sts	0x0217, r1
    1716:	10 92 16 02 	sts	0x0216, r1
    171a:	10 92 25 02 	sts	0x0225, r1
    171e:	10 92 24 02 	sts	0x0224, r1
    1722:	10 92 2b 02 	sts	0x022B, r1
    1726:	10 92 2a 02 	sts	0x022A, r1
    172a:	10 92 1d 02 	sts	0x021D, r1
    172e:	10 92 1c 02 	sts	0x021C, r1
    1732:	10 92 27 02 	sts	0x0227, r1
    1736:	10 92 26 02 	sts	0x0226, r1
    173a:	10 92 5b 02 	sts	0x025B, r1
    173e:	10 92 5a 02 	sts	0x025A, r1
    1742:	08 95       	ret

00001744 <pwm2A>:
    1744:	e0 eb       	ldi	r30, 0xB0	; 176
    1746:	f0 e0       	ldi	r31, 0x00	; 0
    1748:	90 81       	ld	r25, Z
    174a:	90 68       	ori	r25, 0x80	; 128
    174c:	90 83       	st	Z, r25
    174e:	80 93 b3 00 	sts	0x00B3, r24
    1752:	08 95       	ret

00001754 <pwm2B>:
    1754:	e0 eb       	ldi	r30, 0xB0	; 176
    1756:	f0 e0       	ldi	r31, 0x00	; 0
    1758:	90 81       	ld	r25, Z
    175a:	90 62       	ori	r25, 0x20	; 32
    175c:	90 83       	st	Z, r25
    175e:	80 93 b4 00 	sts	0x00B4, r24
    1762:	08 95       	ret

00001764 <pwm_ramp2A>:
    1764:	6f 92       	push	r6
    1766:	7f 92       	push	r7
    1768:	8f 92       	push	r8
    176a:	9f 92       	push	r9
    176c:	af 92       	push	r10
    176e:	bf 92       	push	r11
    1770:	cf 92       	push	r12
    1772:	df 92       	push	r13
    1774:	ef 92       	push	r14
    1776:	ff 92       	push	r15
    1778:	0f 93       	push	r16
    177a:	1f 93       	push	r17
    177c:	cf 93       	push	r28
    177e:	df 93       	push	r29
    1780:	6c 01       	movw	r12, r24
    1782:	00 97       	sbiw	r24, 0x00	; 0
    1784:	09 f4       	brne	.+2      	; 0x1788 <pwm_ramp2A+0x24>
    1786:	d6 c0       	rjmp	.+428    	; 0x1934 <pwm_ramp2A+0x1d0>
    1788:	80 91 2a 02 	lds	r24, 0x022A
    178c:	90 91 2b 02 	lds	r25, 0x022B
    1790:	8c 15       	cp	r24, r12
    1792:	9d 05       	cpc	r25, r13
    1794:	08 f0       	brcs	.+2      	; 0x1798 <pwm_ramp2A+0x34>
    1796:	64 c0       	rjmp	.+200    	; 0x1860 <pwm_ramp2A+0xfc>
    1798:	80 91 b0 00 	lds	r24, 0x00B0
    179c:	80 68       	ori	r24, 0x80	; 128
    179e:	80 93 b0 00 	sts	0x00B0, r24
    17a2:	c0 91 2a 02 	lds	r28, 0x022A
    17a6:	d0 91 2b 02 	lds	r29, 0x022B
    17aa:	cc 16       	cp	r12, r28
    17ac:	dd 06       	cpc	r13, r29
    17ae:	08 f4       	brcc	.+2      	; 0x17b2 <pwm_ramp2A+0x4e>
    17b0:	40 c0       	rjmp	.+128    	; 0x1832 <pwm_ramp2A+0xce>
    17b2:	80 e0       	ldi	r24, 0x00	; 0
    17b4:	90 e0       	ldi	r25, 0x00	; 0
    17b6:	0e 94 de 15 	call	0x2bbc	; 0x2bbc <__floatunsisf>
    17ba:	3b 01       	movw	r6, r22
    17bc:	4c 01       	movw	r8, r24
    17be:	20 e0       	ldi	r18, 0x00	; 0
    17c0:	30 e0       	ldi	r19, 0x00	; 0
    17c2:	4a e7       	ldi	r20, 0x7A	; 122
    17c4:	55 e4       	ldi	r21, 0x45	; 69
    17c6:	0e 94 00 14 	call	0x2800	; 0x2800 <__mulsf3>
    17ca:	7b 01       	movw	r14, r22
    17cc:	8c 01       	movw	r16, r24
    17ce:	50 e9       	ldi	r21, 0x90	; 144
    17d0:	a5 2e       	mov	r10, r21
    17d2:	51 e0       	ldi	r21, 0x01	; 1
    17d4:	b5 2e       	mov	r11, r21
    17d6:	c0 93 b3 00 	sts	0x00B3, r28
    17da:	21 96       	adiw	r28, 0x01	; 1
    17dc:	c8 01       	movw	r24, r16
    17de:	b7 01       	movw	r22, r14
    17e0:	20 e0       	ldi	r18, 0x00	; 0
    17e2:	30 e0       	ldi	r19, 0x00	; 0
    17e4:	40 e8       	ldi	r20, 0x80	; 128
    17e6:	5f e3       	ldi	r21, 0x3F	; 63
    17e8:	0e 94 5a 15 	call	0x2ab4	; 0x2ab4 <__ltsf2>
    17ec:	88 23       	and	r24, r24
    17ee:	0c f4       	brge	.+2      	; 0x17f2 <pwm_ramp2A+0x8e>
    17f0:	9e c0       	rjmp	.+316    	; 0x192e <pwm_ramp2A+0x1ca>
    17f2:	c8 01       	movw	r24, r16
    17f4:	b7 01       	movw	r22, r14
    17f6:	20 e0       	ldi	r18, 0x00	; 0
    17f8:	3f ef       	ldi	r19, 0xFF	; 255
    17fa:	4f e7       	ldi	r20, 0x7F	; 127
    17fc:	57 e4       	ldi	r21, 0x47	; 71
    17fe:	0e 94 fa 14 	call	0x29f4	; 0x29f4 <__gtsf2>
    1802:	18 16       	cp	r1, r24
    1804:	0c f0       	brlt	.+2      	; 0x1808 <pwm_ramp2A+0xa4>
    1806:	78 c0       	rjmp	.+240    	; 0x18f8 <pwm_ramp2A+0x194>
    1808:	c4 01       	movw	r24, r8
    180a:	b3 01       	movw	r22, r6
    180c:	20 e0       	ldi	r18, 0x00	; 0
    180e:	30 e0       	ldi	r19, 0x00	; 0
    1810:	40 e2       	ldi	r20, 0x20	; 32
    1812:	51 e4       	ldi	r21, 0x41	; 65
    1814:	0e 94 00 14 	call	0x2800	; 0x2800 <__mulsf3>
    1818:	0e 94 2a 12 	call	0x2454	; 0x2454 <__fixunssfsi>
    181c:	cb 01       	movw	r24, r22
    181e:	67 2b       	or	r22, r23
    1820:	29 f0       	breq	.+10     	; 0x182c <pwm_ramp2A+0xc8>
    1822:	f5 01       	movw	r30, r10
    1824:	31 97       	sbiw	r30, 0x01	; 1
    1826:	f1 f7       	brne	.-4      	; 0x1824 <pwm_ramp2A+0xc0>
    1828:	01 97       	sbiw	r24, 0x01	; 1
    182a:	d9 f7       	brne	.-10     	; 0x1822 <pwm_ramp2A+0xbe>
    182c:	cc 16       	cp	r12, r28
    182e:	dd 06       	cpc	r13, r29
    1830:	90 f6       	brcc	.-92     	; 0x17d6 <pwm_ramp2A+0x72>
    1832:	d0 92 2b 02 	sts	0x022B, r13
    1836:	c0 92 2a 02 	sts	0x022A, r12
    183a:	d0 92 2b 02 	sts	0x022B, r13
    183e:	c0 92 2a 02 	sts	0x022A, r12
    1842:	df 91       	pop	r29
    1844:	cf 91       	pop	r28
    1846:	1f 91       	pop	r17
    1848:	0f 91       	pop	r16
    184a:	ff 90       	pop	r15
    184c:	ef 90       	pop	r14
    184e:	df 90       	pop	r13
    1850:	cf 90       	pop	r12
    1852:	bf 90       	pop	r11
    1854:	af 90       	pop	r10
    1856:	9f 90       	pop	r9
    1858:	8f 90       	pop	r8
    185a:	7f 90       	pop	r7
    185c:	6f 90       	pop	r6
    185e:	08 95       	ret
    1860:	80 91 b0 00 	lds	r24, 0x00B0
    1864:	80 68       	ori	r24, 0x80	; 128
    1866:	80 93 b0 00 	sts	0x00B0, r24
    186a:	c0 91 2a 02 	lds	r28, 0x022A
    186e:	d0 91 2b 02 	lds	r29, 0x022B
    1872:	cc 15       	cp	r28, r12
    1874:	dd 05       	cpc	r29, r13
    1876:	08 f3       	brcs	.-62     	; 0x183a <pwm_ramp2A+0xd6>
    1878:	80 e0       	ldi	r24, 0x00	; 0
    187a:	90 e0       	ldi	r25, 0x00	; 0
    187c:	0e 94 de 15 	call	0x2bbc	; 0x2bbc <__floatunsisf>
    1880:	3b 01       	movw	r6, r22
    1882:	4c 01       	movw	r8, r24
    1884:	20 e0       	ldi	r18, 0x00	; 0
    1886:	30 e0       	ldi	r19, 0x00	; 0
    1888:	4a e7       	ldi	r20, 0x7A	; 122
    188a:	55 e4       	ldi	r21, 0x45	; 69
    188c:	0e 94 00 14 	call	0x2800	; 0x2800 <__mulsf3>
    1890:	7b 01       	movw	r14, r22
    1892:	8c 01       	movw	r16, r24
    1894:	40 e9       	ldi	r20, 0x90	; 144
    1896:	a4 2e       	mov	r10, r20
    1898:	41 e0       	ldi	r20, 0x01	; 1
    189a:	b4 2e       	mov	r11, r20
    189c:	c0 93 b3 00 	sts	0x00B3, r28
    18a0:	21 97       	sbiw	r28, 0x01	; 1
    18a2:	c8 01       	movw	r24, r16
    18a4:	b7 01       	movw	r22, r14
    18a6:	20 e0       	ldi	r18, 0x00	; 0
    18a8:	30 e0       	ldi	r19, 0x00	; 0
    18aa:	40 e8       	ldi	r20, 0x80	; 128
    18ac:	5f e3       	ldi	r21, 0x3F	; 63
    18ae:	0e 94 5a 15 	call	0x2ab4	; 0x2ab4 <__ltsf2>
    18b2:	88 23       	and	r24, r24
    18b4:	0c f4       	brge	.+2      	; 0x18b8 <pwm_ramp2A+0x154>
    18b6:	38 c0       	rjmp	.+112    	; 0x1928 <pwm_ramp2A+0x1c4>
    18b8:	c8 01       	movw	r24, r16
    18ba:	b7 01       	movw	r22, r14
    18bc:	20 e0       	ldi	r18, 0x00	; 0
    18be:	3f ef       	ldi	r19, 0xFF	; 255
    18c0:	4f e7       	ldi	r20, 0x7F	; 127
    18c2:	57 e4       	ldi	r21, 0x47	; 71
    18c4:	0e 94 fa 14 	call	0x29f4	; 0x29f4 <__gtsf2>
    18c8:	18 16       	cp	r1, r24
    18ca:	14 f5       	brge	.+68     	; 0x1910 <pwm_ramp2A+0x1ac>
    18cc:	c4 01       	movw	r24, r8
    18ce:	b3 01       	movw	r22, r6
    18d0:	20 e0       	ldi	r18, 0x00	; 0
    18d2:	30 e0       	ldi	r19, 0x00	; 0
    18d4:	40 e2       	ldi	r20, 0x20	; 32
    18d6:	51 e4       	ldi	r21, 0x41	; 65
    18d8:	0e 94 00 14 	call	0x2800	; 0x2800 <__mulsf3>
    18dc:	0e 94 2a 12 	call	0x2454	; 0x2454 <__fixunssfsi>
    18e0:	cb 01       	movw	r24, r22
    18e2:	67 2b       	or	r22, r23
    18e4:	29 f0       	breq	.+10     	; 0x18f0 <pwm_ramp2A+0x18c>
    18e6:	f5 01       	movw	r30, r10
    18e8:	31 97       	sbiw	r30, 0x01	; 1
    18ea:	f1 f7       	brne	.-4      	; 0x18e8 <pwm_ramp2A+0x184>
    18ec:	01 97       	sbiw	r24, 0x01	; 1
    18ee:	d9 f7       	brne	.-10     	; 0x18e6 <pwm_ramp2A+0x182>
    18f0:	cc 15       	cp	r28, r12
    18f2:	dd 05       	cpc	r29, r13
    18f4:	98 f6       	brcc	.-90     	; 0x189c <pwm_ramp2A+0x138>
    18f6:	a1 cf       	rjmp	.-190    	; 0x183a <pwm_ramp2A+0xd6>
    18f8:	c8 01       	movw	r24, r16
    18fa:	b7 01       	movw	r22, r14
    18fc:	0e 94 2a 12 	call	0x2454	; 0x2454 <__fixunssfsi>
    1900:	cb 01       	movw	r24, r22
    1902:	01 97       	sbiw	r24, 0x01	; 1
    1904:	f1 f7       	brne	.-4      	; 0x1902 <pwm_ramp2A+0x19e>
    1906:	cc 16       	cp	r12, r28
    1908:	dd 06       	cpc	r13, r29
    190a:	08 f0       	brcs	.+2      	; 0x190e <pwm_ramp2A+0x1aa>
    190c:	64 cf       	rjmp	.-312    	; 0x17d6 <pwm_ramp2A+0x72>
    190e:	91 cf       	rjmp	.-222    	; 0x1832 <pwm_ramp2A+0xce>
    1910:	c8 01       	movw	r24, r16
    1912:	b7 01       	movw	r22, r14
    1914:	0e 94 2a 12 	call	0x2454	; 0x2454 <__fixunssfsi>
    1918:	cb 01       	movw	r24, r22
    191a:	01 97       	sbiw	r24, 0x01	; 1
    191c:	f1 f7       	brne	.-4      	; 0x191a <pwm_ramp2A+0x1b6>
    191e:	cc 15       	cp	r28, r12
    1920:	dd 05       	cpc	r29, r13
    1922:	08 f0       	brcs	.+2      	; 0x1926 <pwm_ramp2A+0x1c2>
    1924:	bb cf       	rjmp	.-138    	; 0x189c <pwm_ramp2A+0x138>
    1926:	89 cf       	rjmp	.-238    	; 0x183a <pwm_ramp2A+0xd6>
    1928:	61 e0       	ldi	r22, 0x01	; 1
    192a:	70 e0       	ldi	r23, 0x00	; 0
    192c:	f5 cf       	rjmp	.-22     	; 0x1918 <pwm_ramp2A+0x1b4>
    192e:	61 e0       	ldi	r22, 0x01	; 1
    1930:	70 e0       	ldi	r23, 0x00	; 0
    1932:	e6 cf       	rjmp	.-52     	; 0x1900 <pwm_ramp2A+0x19c>
    1934:	80 91 b0 00 	lds	r24, 0x00B0
    1938:	80 68       	ori	r24, 0x80	; 128
    193a:	80 93 b0 00 	sts	0x00B0, r24
    193e:	10 92 b3 00 	sts	0x00B3, r1
    1942:	7f cf       	rjmp	.-258    	; 0x1842 <pwm_ramp2A+0xde>

00001944 <pwm_rampUp2A>:
    1944:	6f 92       	push	r6
    1946:	7f 92       	push	r7
    1948:	8f 92       	push	r8
    194a:	9f 92       	push	r9
    194c:	af 92       	push	r10
    194e:	bf 92       	push	r11
    1950:	cf 92       	push	r12
    1952:	df 92       	push	r13
    1954:	ef 92       	push	r14
    1956:	ff 92       	push	r15
    1958:	0f 93       	push	r16
    195a:	1f 93       	push	r17
    195c:	cf 93       	push	r28
    195e:	df 93       	push	r29
    1960:	5c 01       	movw	r10, r24
    1962:	80 91 b0 00 	lds	r24, 0x00B0
    1966:	80 68       	ori	r24, 0x80	; 128
    1968:	80 93 b0 00 	sts	0x00B0, r24
    196c:	c0 91 2a 02 	lds	r28, 0x022A
    1970:	d0 91 2b 02 	lds	r29, 0x022B
    1974:	ac 16       	cp	r10, r28
    1976:	bd 06       	cpc	r11, r29
    1978:	08 f4       	brcc	.+2      	; 0x197c <pwm_rampUp2A+0x38>
    197a:	3f c0       	rjmp	.+126    	; 0x19fa <pwm_rampUp2A+0xb6>
    197c:	80 e0       	ldi	r24, 0x00	; 0
    197e:	90 e0       	ldi	r25, 0x00	; 0
    1980:	0e 94 de 15 	call	0x2bbc	; 0x2bbc <__floatunsisf>
    1984:	3b 01       	movw	r6, r22
    1986:	4c 01       	movw	r8, r24
    1988:	20 e0       	ldi	r18, 0x00	; 0
    198a:	30 e0       	ldi	r19, 0x00	; 0
    198c:	4a e7       	ldi	r20, 0x7A	; 122
    198e:	55 e4       	ldi	r21, 0x45	; 69
    1990:	0e 94 00 14 	call	0x2800	; 0x2800 <__mulsf3>
    1994:	7b 01       	movw	r14, r22
    1996:	8c 01       	movw	r16, r24
    1998:	60 e9       	ldi	r22, 0x90	; 144
    199a:	c6 2e       	mov	r12, r22
    199c:	61 e0       	ldi	r22, 0x01	; 1
    199e:	d6 2e       	mov	r13, r22
    19a0:	c0 93 b3 00 	sts	0x00B3, r28
    19a4:	21 96       	adiw	r28, 0x01	; 1
    19a6:	c8 01       	movw	r24, r16
    19a8:	b7 01       	movw	r22, r14
    19aa:	20 e0       	ldi	r18, 0x00	; 0
    19ac:	30 e0       	ldi	r19, 0x00	; 0
    19ae:	40 e8       	ldi	r20, 0x80	; 128
    19b0:	5f e3       	ldi	r21, 0x3F	; 63
    19b2:	0e 94 5a 15 	call	0x2ab4	; 0x2ab4 <__ltsf2>
    19b6:	88 23       	and	r24, r24
    19b8:	0c f4       	brge	.+2      	; 0x19bc <pwm_rampUp2A+0x78>
    19ba:	3e c0       	rjmp	.+124    	; 0x1a38 <pwm_rampUp2A+0xf4>
    19bc:	c8 01       	movw	r24, r16
    19be:	b7 01       	movw	r22, r14
    19c0:	20 e0       	ldi	r18, 0x00	; 0
    19c2:	3f ef       	ldi	r19, 0xFF	; 255
    19c4:	4f e7       	ldi	r20, 0x7F	; 127
    19c6:	57 e4       	ldi	r21, 0x47	; 71
    19c8:	0e 94 fa 14 	call	0x29f4	; 0x29f4 <__gtsf2>
    19cc:	18 16       	cp	r1, r24
    19ce:	44 f5       	brge	.+80     	; 0x1a20 <pwm_rampUp2A+0xdc>
    19d0:	c4 01       	movw	r24, r8
    19d2:	b3 01       	movw	r22, r6
    19d4:	20 e0       	ldi	r18, 0x00	; 0
    19d6:	30 e0       	ldi	r19, 0x00	; 0
    19d8:	40 e2       	ldi	r20, 0x20	; 32
    19da:	51 e4       	ldi	r21, 0x41	; 65
    19dc:	0e 94 00 14 	call	0x2800	; 0x2800 <__mulsf3>
    19e0:	0e 94 2a 12 	call	0x2454	; 0x2454 <__fixunssfsi>
    19e4:	cb 01       	movw	r24, r22
    19e6:	67 2b       	or	r22, r23
    19e8:	29 f0       	breq	.+10     	; 0x19f4 <pwm_rampUp2A+0xb0>
    19ea:	f6 01       	movw	r30, r12
    19ec:	31 97       	sbiw	r30, 0x01	; 1
    19ee:	f1 f7       	brne	.-4      	; 0x19ec <pwm_rampUp2A+0xa8>
    19f0:	01 97       	sbiw	r24, 0x01	; 1
    19f2:	d9 f7       	brne	.-10     	; 0x19ea <pwm_rampUp2A+0xa6>
    19f4:	ac 16       	cp	r10, r28
    19f6:	bd 06       	cpc	r11, r29
    19f8:	98 f6       	brcc	.-90     	; 0x19a0 <pwm_rampUp2A+0x5c>
    19fa:	b0 92 2b 02 	sts	0x022B, r11
    19fe:	a0 92 2a 02 	sts	0x022A, r10
    1a02:	df 91       	pop	r29
    1a04:	cf 91       	pop	r28
    1a06:	1f 91       	pop	r17
    1a08:	0f 91       	pop	r16
    1a0a:	ff 90       	pop	r15
    1a0c:	ef 90       	pop	r14
    1a0e:	df 90       	pop	r13
    1a10:	cf 90       	pop	r12
    1a12:	bf 90       	pop	r11
    1a14:	af 90       	pop	r10
    1a16:	9f 90       	pop	r9
    1a18:	8f 90       	pop	r8
    1a1a:	7f 90       	pop	r7
    1a1c:	6f 90       	pop	r6
    1a1e:	08 95       	ret
    1a20:	c8 01       	movw	r24, r16
    1a22:	b7 01       	movw	r22, r14
    1a24:	0e 94 2a 12 	call	0x2454	; 0x2454 <__fixunssfsi>
    1a28:	cb 01       	movw	r24, r22
    1a2a:	01 97       	sbiw	r24, 0x01	; 1
    1a2c:	f1 f7       	brne	.-4      	; 0x1a2a <pwm_rampUp2A+0xe6>
    1a2e:	ac 16       	cp	r10, r28
    1a30:	bd 06       	cpc	r11, r29
    1a32:	08 f0       	brcs	.+2      	; 0x1a36 <pwm_rampUp2A+0xf2>
    1a34:	b5 cf       	rjmp	.-150    	; 0x19a0 <pwm_rampUp2A+0x5c>
    1a36:	e1 cf       	rjmp	.-62     	; 0x19fa <pwm_rampUp2A+0xb6>
    1a38:	61 e0       	ldi	r22, 0x01	; 1
    1a3a:	70 e0       	ldi	r23, 0x00	; 0
    1a3c:	f5 cf       	rjmp	.-22     	; 0x1a28 <pwm_rampUp2A+0xe4>

00001a3e <pwm_rampDown2A>:
    1a3e:	6f 92       	push	r6
    1a40:	7f 92       	push	r7
    1a42:	8f 92       	push	r8
    1a44:	9f 92       	push	r9
    1a46:	af 92       	push	r10
    1a48:	bf 92       	push	r11
    1a4a:	cf 92       	push	r12
    1a4c:	df 92       	push	r13
    1a4e:	ef 92       	push	r14
    1a50:	ff 92       	push	r15
    1a52:	0f 93       	push	r16
    1a54:	1f 93       	push	r17
    1a56:	cf 93       	push	r28
    1a58:	df 93       	push	r29
    1a5a:	6c 01       	movw	r12, r24
    1a5c:	00 97       	sbiw	r24, 0x00	; 0
    1a5e:	09 f4       	brne	.+2      	; 0x1a62 <pwm_rampDown2A+0x24>
    1a60:	6e c0       	rjmp	.+220    	; 0x1b3e <pwm_rampDown2A+0x100>
    1a62:	80 91 b0 00 	lds	r24, 0x00B0
    1a66:	80 68       	ori	r24, 0x80	; 128
    1a68:	80 93 b0 00 	sts	0x00B0, r24
    1a6c:	c0 91 2a 02 	lds	r28, 0x022A
    1a70:	d0 91 2b 02 	lds	r29, 0x022B
    1a74:	cc 15       	cp	r28, r12
    1a76:	dd 05       	cpc	r29, r13
    1a78:	08 f4       	brcc	.+2      	; 0x1a7c <pwm_rampDown2A+0x3e>
    1a7a:	3f c0       	rjmp	.+126    	; 0x1afa <pwm_rampDown2A+0xbc>
    1a7c:	80 e0       	ldi	r24, 0x00	; 0
    1a7e:	90 e0       	ldi	r25, 0x00	; 0
    1a80:	0e 94 de 15 	call	0x2bbc	; 0x2bbc <__floatunsisf>
    1a84:	3b 01       	movw	r6, r22
    1a86:	4c 01       	movw	r8, r24
    1a88:	20 e0       	ldi	r18, 0x00	; 0
    1a8a:	30 e0       	ldi	r19, 0x00	; 0
    1a8c:	4a e7       	ldi	r20, 0x7A	; 122
    1a8e:	55 e4       	ldi	r21, 0x45	; 69
    1a90:	0e 94 00 14 	call	0x2800	; 0x2800 <__mulsf3>
    1a94:	7b 01       	movw	r14, r22
    1a96:	8c 01       	movw	r16, r24
    1a98:	70 e9       	ldi	r23, 0x90	; 144
    1a9a:	a7 2e       	mov	r10, r23
    1a9c:	71 e0       	ldi	r23, 0x01	; 1
    1a9e:	b7 2e       	mov	r11, r23
    1aa0:	c0 93 b3 00 	sts	0x00B3, r28
    1aa4:	21 97       	sbiw	r28, 0x01	; 1
    1aa6:	c8 01       	movw	r24, r16
    1aa8:	b7 01       	movw	r22, r14
    1aaa:	20 e0       	ldi	r18, 0x00	; 0
    1aac:	30 e0       	ldi	r19, 0x00	; 0
    1aae:	40 e8       	ldi	r20, 0x80	; 128
    1ab0:	5f e3       	ldi	r21, 0x3F	; 63
    1ab2:	0e 94 5a 15 	call	0x2ab4	; 0x2ab4 <__ltsf2>
    1ab6:	88 23       	and	r24, r24
    1ab8:	0c f4       	brge	.+2      	; 0x1abc <pwm_rampDown2A+0x7e>
    1aba:	3e c0       	rjmp	.+124    	; 0x1b38 <pwm_rampDown2A+0xfa>
    1abc:	c8 01       	movw	r24, r16
    1abe:	b7 01       	movw	r22, r14
    1ac0:	20 e0       	ldi	r18, 0x00	; 0
    1ac2:	3f ef       	ldi	r19, 0xFF	; 255
    1ac4:	4f e7       	ldi	r20, 0x7F	; 127
    1ac6:	57 e4       	ldi	r21, 0x47	; 71
    1ac8:	0e 94 fa 14 	call	0x29f4	; 0x29f4 <__gtsf2>
    1acc:	18 16       	cp	r1, r24
    1ace:	44 f5       	brge	.+80     	; 0x1b20 <pwm_rampDown2A+0xe2>
    1ad0:	c4 01       	movw	r24, r8
    1ad2:	b3 01       	movw	r22, r6
    1ad4:	20 e0       	ldi	r18, 0x00	; 0
    1ad6:	30 e0       	ldi	r19, 0x00	; 0
    1ad8:	40 e2       	ldi	r20, 0x20	; 32
    1ada:	51 e4       	ldi	r21, 0x41	; 65
    1adc:	0e 94 00 14 	call	0x2800	; 0x2800 <__mulsf3>
    1ae0:	0e 94 2a 12 	call	0x2454	; 0x2454 <__fixunssfsi>
    1ae4:	cb 01       	movw	r24, r22
    1ae6:	67 2b       	or	r22, r23
    1ae8:	29 f0       	breq	.+10     	; 0x1af4 <pwm_rampDown2A+0xb6>
    1aea:	f5 01       	movw	r30, r10
    1aec:	31 97       	sbiw	r30, 0x01	; 1
    1aee:	f1 f7       	brne	.-4      	; 0x1aec <pwm_rampDown2A+0xae>
    1af0:	01 97       	sbiw	r24, 0x01	; 1
    1af2:	d9 f7       	brne	.-10     	; 0x1aea <pwm_rampDown2A+0xac>
    1af4:	cc 15       	cp	r28, r12
    1af6:	dd 05       	cpc	r29, r13
    1af8:	98 f6       	brcc	.-90     	; 0x1aa0 <pwm_rampDown2A+0x62>
    1afa:	d0 92 2b 02 	sts	0x022B, r13
    1afe:	c0 92 2a 02 	sts	0x022A, r12
    1b02:	df 91       	pop	r29
    1b04:	cf 91       	pop	r28
    1b06:	1f 91       	pop	r17
    1b08:	0f 91       	pop	r16
    1b0a:	ff 90       	pop	r15
    1b0c:	ef 90       	pop	r14
    1b0e:	df 90       	pop	r13
    1b10:	cf 90       	pop	r12
    1b12:	bf 90       	pop	r11
    1b14:	af 90       	pop	r10
    1b16:	9f 90       	pop	r9
    1b18:	8f 90       	pop	r8
    1b1a:	7f 90       	pop	r7
    1b1c:	6f 90       	pop	r6
    1b1e:	08 95       	ret
    1b20:	c8 01       	movw	r24, r16
    1b22:	b7 01       	movw	r22, r14
    1b24:	0e 94 2a 12 	call	0x2454	; 0x2454 <__fixunssfsi>
    1b28:	cb 01       	movw	r24, r22
    1b2a:	01 97       	sbiw	r24, 0x01	; 1
    1b2c:	f1 f7       	brne	.-4      	; 0x1b2a <pwm_rampDown2A+0xec>
    1b2e:	cc 15       	cp	r28, r12
    1b30:	dd 05       	cpc	r29, r13
    1b32:	08 f0       	brcs	.+2      	; 0x1b36 <pwm_rampDown2A+0xf8>
    1b34:	b5 cf       	rjmp	.-150    	; 0x1aa0 <pwm_rampDown2A+0x62>
    1b36:	e1 cf       	rjmp	.-62     	; 0x1afa <pwm_rampDown2A+0xbc>
    1b38:	61 e0       	ldi	r22, 0x01	; 1
    1b3a:	70 e0       	ldi	r23, 0x00	; 0
    1b3c:	f5 cf       	rjmp	.-22     	; 0x1b28 <pwm_rampDown2A+0xea>
    1b3e:	80 91 b0 00 	lds	r24, 0x00B0
    1b42:	80 68       	ori	r24, 0x80	; 128
    1b44:	80 93 b0 00 	sts	0x00B0, r24
    1b48:	10 92 b3 00 	sts	0x00B3, r1
    1b4c:	d6 cf       	rjmp	.-84     	; 0x1afa <pwm_rampDown2A+0xbc>

00001b4e <pwm_ramp2B>:
    1b4e:	6f 92       	push	r6
    1b50:	7f 92       	push	r7
    1b52:	8f 92       	push	r8
    1b54:	9f 92       	push	r9
    1b56:	af 92       	push	r10
    1b58:	bf 92       	push	r11
    1b5a:	cf 92       	push	r12
    1b5c:	df 92       	push	r13
    1b5e:	ef 92       	push	r14
    1b60:	ff 92       	push	r15
    1b62:	0f 93       	push	r16
    1b64:	1f 93       	push	r17
    1b66:	cf 93       	push	r28
    1b68:	df 93       	push	r29
    1b6a:	6c 01       	movw	r12, r24
    1b6c:	00 97       	sbiw	r24, 0x00	; 0
    1b6e:	09 f0       	breq	.+2      	; 0x1b72 <pwm_ramp2B+0x24>
    1b70:	75 c0       	rjmp	.+234    	; 0x1c5c <pwm_ramp2B+0x10e>
    1b72:	80 91 b0 00 	lds	r24, 0x00B0
    1b76:	80 62       	ori	r24, 0x20	; 32
    1b78:	80 93 b0 00 	sts	0x00B0, r24
    1b7c:	10 92 b4 00 	sts	0x00B4, r1
    1b80:	80 91 5a 02 	lds	r24, 0x025A
    1b84:	90 91 5b 02 	lds	r25, 0x025B
    1b88:	80 91 b0 00 	lds	r24, 0x00B0
    1b8c:	80 62       	ori	r24, 0x20	; 32
    1b8e:	80 93 b0 00 	sts	0x00B0, r24
    1b92:	c0 91 5a 02 	lds	r28, 0x025A
    1b96:	d0 91 5b 02 	lds	r29, 0x025B
    1b9a:	80 e0       	ldi	r24, 0x00	; 0
    1b9c:	90 e0       	ldi	r25, 0x00	; 0
    1b9e:	0e 94 de 15 	call	0x2bbc	; 0x2bbc <__floatunsisf>
    1ba2:	3b 01       	movw	r6, r22
    1ba4:	4c 01       	movw	r8, r24
    1ba6:	20 e0       	ldi	r18, 0x00	; 0
    1ba8:	30 e0       	ldi	r19, 0x00	; 0
    1baa:	4a e7       	ldi	r20, 0x7A	; 122
    1bac:	55 e4       	ldi	r21, 0x45	; 69
    1bae:	0e 94 00 14 	call	0x2800	; 0x2800 <__mulsf3>
    1bb2:	7b 01       	movw	r14, r22
    1bb4:	8c 01       	movw	r16, r24
    1bb6:	f0 e9       	ldi	r31, 0x90	; 144
    1bb8:	af 2e       	mov	r10, r31
    1bba:	f1 e0       	ldi	r31, 0x01	; 1
    1bbc:	bf 2e       	mov	r11, r31
    1bbe:	c0 93 b4 00 	sts	0x00B4, r28
    1bc2:	21 97       	sbiw	r28, 0x01	; 1
    1bc4:	c8 01       	movw	r24, r16
    1bc6:	b7 01       	movw	r22, r14
    1bc8:	20 e0       	ldi	r18, 0x00	; 0
    1bca:	30 e0       	ldi	r19, 0x00	; 0
    1bcc:	40 e8       	ldi	r20, 0x80	; 128
    1bce:	5f e3       	ldi	r21, 0x3F	; 63
    1bd0:	0e 94 5a 15 	call	0x2ab4	; 0x2ab4 <__ltsf2>
    1bd4:	88 23       	and	r24, r24
    1bd6:	0c f4       	brge	.+2      	; 0x1bda <pwm_ramp2B+0x8c>
    1bd8:	3e c0       	rjmp	.+124    	; 0x1c56 <pwm_ramp2B+0x108>
    1bda:	c8 01       	movw	r24, r16
    1bdc:	b7 01       	movw	r22, r14
    1bde:	20 e0       	ldi	r18, 0x00	; 0
    1be0:	3f ef       	ldi	r19, 0xFF	; 255
    1be2:	4f e7       	ldi	r20, 0x7F	; 127
    1be4:	57 e4       	ldi	r21, 0x47	; 71
    1be6:	0e 94 fa 14 	call	0x29f4	; 0x29f4 <__gtsf2>
    1bea:	18 16       	cp	r1, r24
    1bec:	44 f5       	brge	.+80     	; 0x1c3e <pwm_ramp2B+0xf0>
    1bee:	c4 01       	movw	r24, r8
    1bf0:	b3 01       	movw	r22, r6
    1bf2:	20 e0       	ldi	r18, 0x00	; 0
    1bf4:	30 e0       	ldi	r19, 0x00	; 0
    1bf6:	40 e2       	ldi	r20, 0x20	; 32
    1bf8:	51 e4       	ldi	r21, 0x41	; 65
    1bfa:	0e 94 00 14 	call	0x2800	; 0x2800 <__mulsf3>
    1bfe:	0e 94 2a 12 	call	0x2454	; 0x2454 <__fixunssfsi>
    1c02:	cb 01       	movw	r24, r22
    1c04:	67 2b       	or	r22, r23
    1c06:	29 f0       	breq	.+10     	; 0x1c12 <pwm_ramp2B+0xc4>
    1c08:	f5 01       	movw	r30, r10
    1c0a:	31 97       	sbiw	r30, 0x01	; 1
    1c0c:	f1 f7       	brne	.-4      	; 0x1c0a <pwm_ramp2B+0xbc>
    1c0e:	01 97       	sbiw	r24, 0x01	; 1
    1c10:	d9 f7       	brne	.-10     	; 0x1c08 <pwm_ramp2B+0xba>
    1c12:	cc 15       	cp	r28, r12
    1c14:	dd 05       	cpc	r29, r13
    1c16:	98 f6       	brcc	.-90     	; 0x1bbe <pwm_ramp2B+0x70>
    1c18:	d0 92 5b 02 	sts	0x025B, r13
    1c1c:	c0 92 5a 02 	sts	0x025A, r12
    1c20:	df 91       	pop	r29
    1c22:	cf 91       	pop	r28
    1c24:	1f 91       	pop	r17
    1c26:	0f 91       	pop	r16
    1c28:	ff 90       	pop	r15
    1c2a:	ef 90       	pop	r14
    1c2c:	df 90       	pop	r13
    1c2e:	cf 90       	pop	r12
    1c30:	bf 90       	pop	r11
    1c32:	af 90       	pop	r10
    1c34:	9f 90       	pop	r9
    1c36:	8f 90       	pop	r8
    1c38:	7f 90       	pop	r7
    1c3a:	6f 90       	pop	r6
    1c3c:	08 95       	ret
    1c3e:	c8 01       	movw	r24, r16
    1c40:	b7 01       	movw	r22, r14
    1c42:	0e 94 2a 12 	call	0x2454	; 0x2454 <__fixunssfsi>
    1c46:	cb 01       	movw	r24, r22
    1c48:	01 97       	sbiw	r24, 0x01	; 1
    1c4a:	f1 f7       	brne	.-4      	; 0x1c48 <pwm_ramp2B+0xfa>
    1c4c:	cc 15       	cp	r28, r12
    1c4e:	dd 05       	cpc	r29, r13
    1c50:	08 f0       	brcs	.+2      	; 0x1c54 <pwm_ramp2B+0x106>
    1c52:	b5 cf       	rjmp	.-150    	; 0x1bbe <pwm_ramp2B+0x70>
    1c54:	e1 cf       	rjmp	.-62     	; 0x1c18 <pwm_ramp2B+0xca>
    1c56:	61 e0       	ldi	r22, 0x01	; 1
    1c58:	70 e0       	ldi	r23, 0x00	; 0
    1c5a:	f5 cf       	rjmp	.-22     	; 0x1c46 <pwm_ramp2B+0xf8>
    1c5c:	80 91 5a 02 	lds	r24, 0x025A
    1c60:	90 91 5b 02 	lds	r25, 0x025B
    1c64:	8c 15       	cp	r24, r12
    1c66:	9d 05       	cpc	r25, r13
    1c68:	08 f0       	brcs	.+2      	; 0x1c6c <pwm_ramp2B+0x11e>
    1c6a:	59 c0       	rjmp	.+178    	; 0x1d1e <pwm_ramp2B+0x1d0>
    1c6c:	80 91 b0 00 	lds	r24, 0x00B0
    1c70:	80 62       	ori	r24, 0x20	; 32
    1c72:	80 93 b0 00 	sts	0x00B0, r24
    1c76:	c0 91 5a 02 	lds	r28, 0x025A
    1c7a:	d0 91 5b 02 	lds	r29, 0x025B
    1c7e:	cc 16       	cp	r12, r28
    1c80:	dd 06       	cpc	r13, r29
    1c82:	50 f2       	brcs	.-108    	; 0x1c18 <pwm_ramp2B+0xca>
    1c84:	80 e0       	ldi	r24, 0x00	; 0
    1c86:	90 e0       	ldi	r25, 0x00	; 0
    1c88:	0e 94 de 15 	call	0x2bbc	; 0x2bbc <__floatunsisf>
    1c8c:	3b 01       	movw	r6, r22
    1c8e:	4c 01       	movw	r8, r24
    1c90:	20 e0       	ldi	r18, 0x00	; 0
    1c92:	30 e0       	ldi	r19, 0x00	; 0
    1c94:	4a e7       	ldi	r20, 0x7A	; 122
    1c96:	55 e4       	ldi	r21, 0x45	; 69
    1c98:	0e 94 00 14 	call	0x2800	; 0x2800 <__mulsf3>
    1c9c:	7b 01       	movw	r14, r22
    1c9e:	8c 01       	movw	r16, r24
    1ca0:	e0 e9       	ldi	r30, 0x90	; 144
    1ca2:	ae 2e       	mov	r10, r30
    1ca4:	e1 e0       	ldi	r30, 0x01	; 1
    1ca6:	be 2e       	mov	r11, r30
    1ca8:	c0 93 b4 00 	sts	0x00B4, r28
    1cac:	21 96       	adiw	r28, 0x01	; 1
    1cae:	c8 01       	movw	r24, r16
    1cb0:	b7 01       	movw	r22, r14
    1cb2:	20 e0       	ldi	r18, 0x00	; 0
    1cb4:	30 e0       	ldi	r19, 0x00	; 0
    1cb6:	40 e8       	ldi	r20, 0x80	; 128
    1cb8:	5f e3       	ldi	r21, 0x3F	; 63
    1cba:	0e 94 5a 15 	call	0x2ab4	; 0x2ab4 <__ltsf2>
    1cbe:	88 23       	and	r24, r24
    1cc0:	5c f1       	brlt	.+86     	; 0x1d18 <pwm_ramp2B+0x1ca>
    1cc2:	c8 01       	movw	r24, r16
    1cc4:	b7 01       	movw	r22, r14
    1cc6:	20 e0       	ldi	r18, 0x00	; 0
    1cc8:	3f ef       	ldi	r19, 0xFF	; 255
    1cca:	4f e7       	ldi	r20, 0x7F	; 127
    1ccc:	57 e4       	ldi	r21, 0x47	; 71
    1cce:	0e 94 fa 14 	call	0x29f4	; 0x29f4 <__gtsf2>
    1cd2:	18 16       	cp	r1, r24
    1cd4:	b4 f4       	brge	.+44     	; 0x1d02 <pwm_ramp2B+0x1b4>
    1cd6:	c4 01       	movw	r24, r8
    1cd8:	b3 01       	movw	r22, r6
    1cda:	20 e0       	ldi	r18, 0x00	; 0
    1cdc:	30 e0       	ldi	r19, 0x00	; 0
    1cde:	40 e2       	ldi	r20, 0x20	; 32
    1ce0:	51 e4       	ldi	r21, 0x41	; 65
    1ce2:	0e 94 00 14 	call	0x2800	; 0x2800 <__mulsf3>
    1ce6:	0e 94 2a 12 	call	0x2454	; 0x2454 <__fixunssfsi>
    1cea:	cb 01       	movw	r24, r22
    1cec:	67 2b       	or	r22, r23
    1cee:	29 f0       	breq	.+10     	; 0x1cfa <pwm_ramp2B+0x1ac>
    1cf0:	f5 01       	movw	r30, r10
    1cf2:	31 97       	sbiw	r30, 0x01	; 1
    1cf4:	f1 f7       	brne	.-4      	; 0x1cf2 <pwm_ramp2B+0x1a4>
    1cf6:	01 97       	sbiw	r24, 0x01	; 1
    1cf8:	d9 f7       	brne	.-10     	; 0x1cf0 <pwm_ramp2B+0x1a2>
    1cfa:	cc 16       	cp	r12, r28
    1cfc:	dd 06       	cpc	r13, r29
    1cfe:	a0 f6       	brcc	.-88     	; 0x1ca8 <pwm_ramp2B+0x15a>
    1d00:	8b cf       	rjmp	.-234    	; 0x1c18 <pwm_ramp2B+0xca>
    1d02:	c8 01       	movw	r24, r16
    1d04:	b7 01       	movw	r22, r14
    1d06:	0e 94 2a 12 	call	0x2454	; 0x2454 <__fixunssfsi>
    1d0a:	cb 01       	movw	r24, r22
    1d0c:	01 97       	sbiw	r24, 0x01	; 1
    1d0e:	f1 f7       	brne	.-4      	; 0x1d0c <pwm_ramp2B+0x1be>
    1d10:	cc 16       	cp	r12, r28
    1d12:	dd 06       	cpc	r13, r29
    1d14:	48 f6       	brcc	.-110    	; 0x1ca8 <pwm_ramp2B+0x15a>
    1d16:	80 cf       	rjmp	.-256    	; 0x1c18 <pwm_ramp2B+0xca>
    1d18:	61 e0       	ldi	r22, 0x01	; 1
    1d1a:	70 e0       	ldi	r23, 0x00	; 0
    1d1c:	f6 cf       	rjmp	.-20     	; 0x1d0a <pwm_ramp2B+0x1bc>
    1d1e:	80 91 b0 00 	lds	r24, 0x00B0
    1d22:	80 62       	ori	r24, 0x20	; 32
    1d24:	80 93 b0 00 	sts	0x00B0, r24
    1d28:	c0 91 5a 02 	lds	r28, 0x025A
    1d2c:	d0 91 5b 02 	lds	r29, 0x025B
    1d30:	cc 15       	cp	r28, r12
    1d32:	dd 05       	cpc	r29, r13
    1d34:	08 f4       	brcc	.+2      	; 0x1d38 <pwm_ramp2B+0x1ea>
    1d36:	70 cf       	rjmp	.-288    	; 0x1c18 <pwm_ramp2B+0xca>
    1d38:	30 cf       	rjmp	.-416    	; 0x1b9a <pwm_ramp2B+0x4c>

00001d3a <pwm_rampUp2B>:
    1d3a:	6f 92       	push	r6
    1d3c:	7f 92       	push	r7
    1d3e:	8f 92       	push	r8
    1d40:	9f 92       	push	r9
    1d42:	af 92       	push	r10
    1d44:	bf 92       	push	r11
    1d46:	cf 92       	push	r12
    1d48:	df 92       	push	r13
    1d4a:	ef 92       	push	r14
    1d4c:	ff 92       	push	r15
    1d4e:	0f 93       	push	r16
    1d50:	1f 93       	push	r17
    1d52:	cf 93       	push	r28
    1d54:	df 93       	push	r29
    1d56:	5c 01       	movw	r10, r24
    1d58:	80 91 b0 00 	lds	r24, 0x00B0
    1d5c:	80 62       	ori	r24, 0x20	; 32
    1d5e:	80 93 b0 00 	sts	0x00B0, r24
    1d62:	c0 91 5a 02 	lds	r28, 0x025A
    1d66:	d0 91 5b 02 	lds	r29, 0x025B
    1d6a:	ac 16       	cp	r10, r28
    1d6c:	bd 06       	cpc	r11, r29
    1d6e:	08 f4       	brcc	.+2      	; 0x1d72 <pwm_rampUp2B+0x38>
    1d70:	3f c0       	rjmp	.+126    	; 0x1df0 <pwm_rampUp2B+0xb6>
    1d72:	80 e0       	ldi	r24, 0x00	; 0
    1d74:	90 e0       	ldi	r25, 0x00	; 0
    1d76:	0e 94 de 15 	call	0x2bbc	; 0x2bbc <__floatunsisf>
    1d7a:	3b 01       	movw	r6, r22
    1d7c:	4c 01       	movw	r8, r24
    1d7e:	20 e0       	ldi	r18, 0x00	; 0
    1d80:	30 e0       	ldi	r19, 0x00	; 0
    1d82:	4a e7       	ldi	r20, 0x7A	; 122
    1d84:	55 e4       	ldi	r21, 0x45	; 69
    1d86:	0e 94 00 14 	call	0x2800	; 0x2800 <__mulsf3>
    1d8a:	7b 01       	movw	r14, r22
    1d8c:	8c 01       	movw	r16, r24
    1d8e:	a0 e9       	ldi	r26, 0x90	; 144
    1d90:	ca 2e       	mov	r12, r26
    1d92:	a1 e0       	ldi	r26, 0x01	; 1
    1d94:	da 2e       	mov	r13, r26
    1d96:	c0 93 b4 00 	sts	0x00B4, r28
    1d9a:	21 96       	adiw	r28, 0x01	; 1
    1d9c:	c8 01       	movw	r24, r16
    1d9e:	b7 01       	movw	r22, r14
    1da0:	20 e0       	ldi	r18, 0x00	; 0
    1da2:	30 e0       	ldi	r19, 0x00	; 0
    1da4:	40 e8       	ldi	r20, 0x80	; 128
    1da6:	5f e3       	ldi	r21, 0x3F	; 63
    1da8:	0e 94 5a 15 	call	0x2ab4	; 0x2ab4 <__ltsf2>
    1dac:	88 23       	and	r24, r24
    1dae:	0c f4       	brge	.+2      	; 0x1db2 <pwm_rampUp2B+0x78>
    1db0:	3e c0       	rjmp	.+124    	; 0x1e2e <pwm_rampUp2B+0xf4>
    1db2:	c8 01       	movw	r24, r16
    1db4:	b7 01       	movw	r22, r14
    1db6:	20 e0       	ldi	r18, 0x00	; 0
    1db8:	3f ef       	ldi	r19, 0xFF	; 255
    1dba:	4f e7       	ldi	r20, 0x7F	; 127
    1dbc:	57 e4       	ldi	r21, 0x47	; 71
    1dbe:	0e 94 fa 14 	call	0x29f4	; 0x29f4 <__gtsf2>
    1dc2:	18 16       	cp	r1, r24
    1dc4:	44 f5       	brge	.+80     	; 0x1e16 <pwm_rampUp2B+0xdc>
    1dc6:	c4 01       	movw	r24, r8
    1dc8:	b3 01       	movw	r22, r6
    1dca:	20 e0       	ldi	r18, 0x00	; 0
    1dcc:	30 e0       	ldi	r19, 0x00	; 0
    1dce:	40 e2       	ldi	r20, 0x20	; 32
    1dd0:	51 e4       	ldi	r21, 0x41	; 65
    1dd2:	0e 94 00 14 	call	0x2800	; 0x2800 <__mulsf3>
    1dd6:	0e 94 2a 12 	call	0x2454	; 0x2454 <__fixunssfsi>
    1dda:	cb 01       	movw	r24, r22
    1ddc:	67 2b       	or	r22, r23
    1dde:	29 f0       	breq	.+10     	; 0x1dea <pwm_rampUp2B+0xb0>
    1de0:	f6 01       	movw	r30, r12
    1de2:	31 97       	sbiw	r30, 0x01	; 1
    1de4:	f1 f7       	brne	.-4      	; 0x1de2 <pwm_rampUp2B+0xa8>
    1de6:	01 97       	sbiw	r24, 0x01	; 1
    1de8:	d9 f7       	brne	.-10     	; 0x1de0 <pwm_rampUp2B+0xa6>
    1dea:	ac 16       	cp	r10, r28
    1dec:	bd 06       	cpc	r11, r29
    1dee:	98 f6       	brcc	.-90     	; 0x1d96 <pwm_rampUp2B+0x5c>
    1df0:	b0 92 5b 02 	sts	0x025B, r11
    1df4:	a0 92 5a 02 	sts	0x025A, r10
    1df8:	df 91       	pop	r29
    1dfa:	cf 91       	pop	r28
    1dfc:	1f 91       	pop	r17
    1dfe:	0f 91       	pop	r16
    1e00:	ff 90       	pop	r15
    1e02:	ef 90       	pop	r14
    1e04:	df 90       	pop	r13
    1e06:	cf 90       	pop	r12
    1e08:	bf 90       	pop	r11
    1e0a:	af 90       	pop	r10
    1e0c:	9f 90       	pop	r9
    1e0e:	8f 90       	pop	r8
    1e10:	7f 90       	pop	r7
    1e12:	6f 90       	pop	r6
    1e14:	08 95       	ret
    1e16:	c8 01       	movw	r24, r16
    1e18:	b7 01       	movw	r22, r14
    1e1a:	0e 94 2a 12 	call	0x2454	; 0x2454 <__fixunssfsi>
    1e1e:	cb 01       	movw	r24, r22
    1e20:	01 97       	sbiw	r24, 0x01	; 1
    1e22:	f1 f7       	brne	.-4      	; 0x1e20 <pwm_rampUp2B+0xe6>
    1e24:	ac 16       	cp	r10, r28
    1e26:	bd 06       	cpc	r11, r29
    1e28:	08 f0       	brcs	.+2      	; 0x1e2c <pwm_rampUp2B+0xf2>
    1e2a:	b5 cf       	rjmp	.-150    	; 0x1d96 <pwm_rampUp2B+0x5c>
    1e2c:	e1 cf       	rjmp	.-62     	; 0x1df0 <pwm_rampUp2B+0xb6>
    1e2e:	61 e0       	ldi	r22, 0x01	; 1
    1e30:	70 e0       	ldi	r23, 0x00	; 0
    1e32:	f5 cf       	rjmp	.-22     	; 0x1e1e <pwm_rampUp2B+0xe4>

00001e34 <pwm_rampDown2B>:
    1e34:	6f 92       	push	r6
    1e36:	7f 92       	push	r7
    1e38:	8f 92       	push	r8
    1e3a:	9f 92       	push	r9
    1e3c:	af 92       	push	r10
    1e3e:	bf 92       	push	r11
    1e40:	cf 92       	push	r12
    1e42:	df 92       	push	r13
    1e44:	ef 92       	push	r14
    1e46:	ff 92       	push	r15
    1e48:	0f 93       	push	r16
    1e4a:	1f 93       	push	r17
    1e4c:	cf 93       	push	r28
    1e4e:	df 93       	push	r29
    1e50:	5c 01       	movw	r10, r24
    1e52:	00 97       	sbiw	r24, 0x00	; 0
    1e54:	09 f0       	breq	.+2      	; 0x1e58 <pwm_rampDown2B+0x24>
    1e56:	71 c0       	rjmp	.+226    	; 0x1f3a <pwm_rampDown2B+0x106>
    1e58:	80 91 b0 00 	lds	r24, 0x00B0
    1e5c:	80 62       	ori	r24, 0x20	; 32
    1e5e:	80 93 b0 00 	sts	0x00B0, r24
    1e62:	10 92 b4 00 	sts	0x00B4, r1
    1e66:	80 91 b0 00 	lds	r24, 0x00B0
    1e6a:	80 62       	ori	r24, 0x20	; 32
    1e6c:	80 93 b0 00 	sts	0x00B0, r24
    1e70:	c0 91 5a 02 	lds	r28, 0x025A
    1e74:	d0 91 5b 02 	lds	r29, 0x025B
    1e78:	80 e0       	ldi	r24, 0x00	; 0
    1e7a:	90 e0       	ldi	r25, 0x00	; 0
    1e7c:	0e 94 de 15 	call	0x2bbc	; 0x2bbc <__floatunsisf>
    1e80:	3b 01       	movw	r6, r22
    1e82:	4c 01       	movw	r8, r24
    1e84:	20 e0       	ldi	r18, 0x00	; 0
    1e86:	30 e0       	ldi	r19, 0x00	; 0
    1e88:	4a e7       	ldi	r20, 0x7A	; 122
    1e8a:	55 e4       	ldi	r21, 0x45	; 69
    1e8c:	0e 94 00 14 	call	0x2800	; 0x2800 <__mulsf3>
    1e90:	7b 01       	movw	r14, r22
    1e92:	8c 01       	movw	r16, r24
    1e94:	b0 e9       	ldi	r27, 0x90	; 144
    1e96:	cb 2e       	mov	r12, r27
    1e98:	b1 e0       	ldi	r27, 0x01	; 1
    1e9a:	db 2e       	mov	r13, r27
    1e9c:	c0 93 b4 00 	sts	0x00B4, r28
    1ea0:	21 97       	sbiw	r28, 0x01	; 1
    1ea2:	c8 01       	movw	r24, r16
    1ea4:	b7 01       	movw	r22, r14
    1ea6:	20 e0       	ldi	r18, 0x00	; 0
    1ea8:	30 e0       	ldi	r19, 0x00	; 0
    1eaa:	40 e8       	ldi	r20, 0x80	; 128
    1eac:	5f e3       	ldi	r21, 0x3F	; 63
    1eae:	0e 94 5a 15 	call	0x2ab4	; 0x2ab4 <__ltsf2>
    1eb2:	88 23       	and	r24, r24
    1eb4:	0c f4       	brge	.+2      	; 0x1eb8 <pwm_rampDown2B+0x84>
    1eb6:	3e c0       	rjmp	.+124    	; 0x1f34 <pwm_rampDown2B+0x100>
    1eb8:	c8 01       	movw	r24, r16
    1eba:	b7 01       	movw	r22, r14
    1ebc:	20 e0       	ldi	r18, 0x00	; 0
    1ebe:	3f ef       	ldi	r19, 0xFF	; 255
    1ec0:	4f e7       	ldi	r20, 0x7F	; 127
    1ec2:	57 e4       	ldi	r21, 0x47	; 71
    1ec4:	0e 94 fa 14 	call	0x29f4	; 0x29f4 <__gtsf2>
    1ec8:	18 16       	cp	r1, r24
    1eca:	44 f5       	brge	.+80     	; 0x1f1c <pwm_rampDown2B+0xe8>
    1ecc:	c4 01       	movw	r24, r8
    1ece:	b3 01       	movw	r22, r6
    1ed0:	20 e0       	ldi	r18, 0x00	; 0
    1ed2:	30 e0       	ldi	r19, 0x00	; 0
    1ed4:	40 e2       	ldi	r20, 0x20	; 32
    1ed6:	51 e4       	ldi	r21, 0x41	; 65
    1ed8:	0e 94 00 14 	call	0x2800	; 0x2800 <__mulsf3>
    1edc:	0e 94 2a 12 	call	0x2454	; 0x2454 <__fixunssfsi>
    1ee0:	cb 01       	movw	r24, r22
    1ee2:	67 2b       	or	r22, r23
    1ee4:	29 f0       	breq	.+10     	; 0x1ef0 <pwm_rampDown2B+0xbc>
    1ee6:	f6 01       	movw	r30, r12
    1ee8:	31 97       	sbiw	r30, 0x01	; 1
    1eea:	f1 f7       	brne	.-4      	; 0x1ee8 <pwm_rampDown2B+0xb4>
    1eec:	01 97       	sbiw	r24, 0x01	; 1
    1eee:	d9 f7       	brne	.-10     	; 0x1ee6 <pwm_rampDown2B+0xb2>
    1ef0:	ca 15       	cp	r28, r10
    1ef2:	db 05       	cpc	r29, r11
    1ef4:	98 f6       	brcc	.-90     	; 0x1e9c <pwm_rampDown2B+0x68>
    1ef6:	b0 92 5b 02 	sts	0x025B, r11
    1efa:	a0 92 5a 02 	sts	0x025A, r10
    1efe:	df 91       	pop	r29
    1f00:	cf 91       	pop	r28
    1f02:	1f 91       	pop	r17
    1f04:	0f 91       	pop	r16
    1f06:	ff 90       	pop	r15
    1f08:	ef 90       	pop	r14
    1f0a:	df 90       	pop	r13
    1f0c:	cf 90       	pop	r12
    1f0e:	bf 90       	pop	r11
    1f10:	af 90       	pop	r10
    1f12:	9f 90       	pop	r9
    1f14:	8f 90       	pop	r8
    1f16:	7f 90       	pop	r7
    1f18:	6f 90       	pop	r6
    1f1a:	08 95       	ret
    1f1c:	c8 01       	movw	r24, r16
    1f1e:	b7 01       	movw	r22, r14
    1f20:	0e 94 2a 12 	call	0x2454	; 0x2454 <__fixunssfsi>
    1f24:	cb 01       	movw	r24, r22
    1f26:	01 97       	sbiw	r24, 0x01	; 1
    1f28:	f1 f7       	brne	.-4      	; 0x1f26 <pwm_rampDown2B+0xf2>
    1f2a:	ca 15       	cp	r28, r10
    1f2c:	db 05       	cpc	r29, r11
    1f2e:	08 f0       	brcs	.+2      	; 0x1f32 <pwm_rampDown2B+0xfe>
    1f30:	b5 cf       	rjmp	.-150    	; 0x1e9c <pwm_rampDown2B+0x68>
    1f32:	e1 cf       	rjmp	.-62     	; 0x1ef6 <pwm_rampDown2B+0xc2>
    1f34:	61 e0       	ldi	r22, 0x01	; 1
    1f36:	70 e0       	ldi	r23, 0x00	; 0
    1f38:	f5 cf       	rjmp	.-22     	; 0x1f24 <pwm_rampDown2B+0xf0>
    1f3a:	80 91 b0 00 	lds	r24, 0x00B0
    1f3e:	80 62       	ori	r24, 0x20	; 32
    1f40:	80 93 b0 00 	sts	0x00B0, r24
    1f44:	c0 91 5a 02 	lds	r28, 0x025A
    1f48:	d0 91 5b 02 	lds	r29, 0x025B
    1f4c:	ca 15       	cp	r28, r10
    1f4e:	db 05       	cpc	r29, r11
    1f50:	08 f0       	brcs	.+2      	; 0x1f54 <pwm_rampDown2B+0x120>
    1f52:	92 cf       	rjmp	.-220    	; 0x1e78 <pwm_rampDown2B+0x44>
    1f54:	d0 cf       	rjmp	.-96     	; 0x1ef6 <pwm_rampDown2B+0xc2>

00001f56 <can_turn_right>:
    1f56:	84 e7       	ldi	r24, 0x74	; 116
    1f58:	08 95       	ret

00001f5a <ultrasound_filter>:
    1f5a:	0e 94 80 00 	call	0x100	; 0x100 <adc_change>
    1f5e:	20 e0       	ldi	r18, 0x00	; 0
    1f60:	30 e0       	ldi	r19, 0x00	; 0
    1f62:	40 e9       	ldi	r20, 0x90	; 144
    1f64:	51 e0       	ldi	r21, 0x01	; 1
    1f66:	ca 01       	movw	r24, r20
    1f68:	01 97       	sbiw	r24, 0x01	; 1
    1f6a:	f1 f7       	brne	.-4      	; 0x1f68 <ultrasound_filter+0xe>
    1f6c:	2f 5f       	subi	r18, 0xFF	; 255
    1f6e:	3f 4f       	sbci	r19, 0xFF	; 255
    1f70:	28 3c       	cpi	r18, 0xC8	; 200
    1f72:	31 05       	cpc	r19, r1
    1f74:	c1 f7       	brne	.-16     	; 0x1f66 <ultrasound_filter+0xc>
    1f76:	80 91 79 00 	lds	r24, 0x0079
    1f7a:	90 e0       	ldi	r25, 0x00	; 0
    1f7c:	90 93 23 02 	sts	0x0223, r25
    1f80:	80 93 22 02 	sts	0x0222, r24
    1f84:	10 92 0d 02 	sts	0x020D, r1
    1f88:	10 92 0c 02 	sts	0x020C, r1
    1f8c:	80 91 0c 02 	lds	r24, 0x020C
    1f90:	90 91 0d 02 	lds	r25, 0x020D
    1f94:	45 97       	sbiw	r24, 0x15	; 21
    1f96:	0c f4       	brge	.+2      	; 0x1f9a <ultrasound_filter+0x40>
    1f98:	44 c0       	rjmp	.+136    	; 0x2022 <ultrasound_filter+0xc8>
    1f9a:	60 c0       	rjmp	.+192    	; 0x205c <ultrasound_filter+0x102>
    1f9c:	35 95       	asr	r19
    1f9e:	27 95       	ror	r18
    1fa0:	82 0f       	add	r24, r18
    1fa2:	93 1f       	adc	r25, r19
    1fa4:	90 93 23 02 	sts	0x0223, r25
    1fa8:	80 93 22 02 	sts	0x0222, r24
    1fac:	20 91 79 00 	lds	r18, 0x0079
    1fb0:	80 91 0e 02 	lds	r24, 0x020E
    1fb4:	90 91 0f 02 	lds	r25, 0x020F
    1fb8:	30 e0       	ldi	r19, 0x00	; 0
    1fba:	84 56       	subi	r24, 0x64	; 100
    1fbc:	90 40       	sbci	r25, 0x00	; 0
    1fbe:	28 17       	cp	r18, r24
    1fc0:	39 07       	cpc	r19, r25
    1fc2:	94 f4       	brge	.+36     	; 0x1fe8 <ultrasound_filter+0x8e>
    1fc4:	80 91 79 00 	lds	r24, 0x0079
    1fc8:	20 91 0e 02 	lds	r18, 0x020E
    1fcc:	30 91 0f 02 	lds	r19, 0x020F
    1fd0:	86 95       	lsr	r24
    1fd2:	90 e0       	ldi	r25, 0x00	; 0
    1fd4:	37 fd       	sbrc	r19, 7
    1fd6:	3f c0       	rjmp	.+126    	; 0x2056 <ultrasound_filter+0xfc>
    1fd8:	35 95       	asr	r19
    1fda:	27 95       	ror	r18
    1fdc:	82 0f       	add	r24, r18
    1fde:	93 1f       	adc	r25, r19
    1fe0:	90 93 23 02 	sts	0x0223, r25
    1fe4:	80 93 22 02 	sts	0x0222, r24
    1fe8:	e0 91 0c 02 	lds	r30, 0x020C
    1fec:	f0 91 0d 02 	lds	r31, 0x020D
    1ff0:	80 91 22 02 	lds	r24, 0x0222
    1ff4:	90 91 23 02 	lds	r25, 0x0223
    1ff8:	ee 0f       	add	r30, r30
    1ffa:	ff 1f       	adc	r31, r31
    1ffc:	e2 5d       	subi	r30, 0xD2	; 210
    1ffe:	fd 4f       	sbci	r31, 0xFD	; 253
    2000:	91 83       	std	Z+1, r25	; 0x01
    2002:	80 83       	st	Z, r24
    2004:	80 91 0c 02 	lds	r24, 0x020C
    2008:	90 91 0d 02 	lds	r25, 0x020D
    200c:	01 96       	adiw	r24, 0x01	; 1
    200e:	90 93 0d 02 	sts	0x020D, r25
    2012:	80 93 0c 02 	sts	0x020C, r24
    2016:	80 91 0c 02 	lds	r24, 0x020C
    201a:	90 91 0d 02 	lds	r25, 0x020D
    201e:	45 97       	sbiw	r24, 0x15	; 21
    2020:	ec f4       	brge	.+58     	; 0x205c <ultrasound_filter+0x102>
    2022:	20 91 79 00 	lds	r18, 0x0079
    2026:	80 91 0e 02 	lds	r24, 0x020E
    202a:	90 91 0f 02 	lds	r25, 0x020F
    202e:	30 e0       	ldi	r19, 0x00	; 0
    2030:	8c 59       	subi	r24, 0x9C	; 156
    2032:	9f 4f       	sbci	r25, 0xFF	; 255
    2034:	82 17       	cp	r24, r18
    2036:	93 07       	cpc	r25, r19
    2038:	0c f0       	brlt	.+2      	; 0x203c <ultrasound_filter+0xe2>
    203a:	b8 cf       	rjmp	.-144    	; 0x1fac <ultrasound_filter+0x52>
    203c:	80 91 79 00 	lds	r24, 0x0079
    2040:	20 91 0e 02 	lds	r18, 0x020E
    2044:	30 91 0f 02 	lds	r19, 0x020F
    2048:	86 95       	lsr	r24
    204a:	90 e0       	ldi	r25, 0x00	; 0
    204c:	37 ff       	sbrs	r19, 7
    204e:	a6 cf       	rjmp	.-180    	; 0x1f9c <ultrasound_filter+0x42>
    2050:	2f 5f       	subi	r18, 0xFF	; 255
    2052:	3f 4f       	sbci	r19, 0xFF	; 255
    2054:	a3 cf       	rjmp	.-186    	; 0x1f9c <ultrasound_filter+0x42>
    2056:	2f 5f       	subi	r18, 0xFF	; 255
    2058:	3f 4f       	sbci	r19, 0xFF	; 255
    205a:	be cf       	rjmp	.-132    	; 0x1fd8 <ultrasound_filter+0x7e>
    205c:	10 92 0d 02 	sts	0x020D, r1
    2060:	10 92 0c 02 	sts	0x020C, r1
    2064:	80 91 0c 02 	lds	r24, 0x020C
    2068:	90 91 0d 02 	lds	r25, 0x020D
    206c:	45 97       	sbiw	r24, 0x15	; 21
    206e:	1c f5       	brge	.+70     	; 0x20b6 <ultrasound_filter+0x15c>
    2070:	e0 91 0c 02 	lds	r30, 0x020C
    2074:	f0 91 0d 02 	lds	r31, 0x020D
    2078:	ee 0f       	add	r30, r30
    207a:	ff 1f       	adc	r31, r31
    207c:	e2 5d       	subi	r30, 0xD2	; 210
    207e:	fd 4f       	sbci	r31, 0xFD	; 253
    2080:	80 81       	ld	r24, Z
    2082:	91 81       	ldd	r25, Z+1	; 0x01
    2084:	20 91 0e 02 	lds	r18, 0x020E
    2088:	30 91 0f 02 	lds	r19, 0x020F
    208c:	82 0f       	add	r24, r18
    208e:	93 1f       	adc	r25, r19
    2090:	90 93 0f 02 	sts	0x020F, r25
    2094:	80 93 0e 02 	sts	0x020E, r24
    2098:	80 91 0c 02 	lds	r24, 0x020C
    209c:	90 91 0d 02 	lds	r25, 0x020D
    20a0:	01 96       	adiw	r24, 0x01	; 1
    20a2:	90 93 0d 02 	sts	0x020D, r25
    20a6:	80 93 0c 02 	sts	0x020C, r24
    20aa:	80 91 0c 02 	lds	r24, 0x020C
    20ae:	90 91 0d 02 	lds	r25, 0x020D
    20b2:	45 97       	sbiw	r24, 0x15	; 21
    20b4:	ec f2       	brlt	.-70     	; 0x2070 <ultrasound_filter+0x116>
    20b6:	80 91 0e 02 	lds	r24, 0x020E
    20ba:	90 91 0f 02 	lds	r25, 0x020F
    20be:	64 e1       	ldi	r22, 0x14	; 20
    20c0:	70 e0       	ldi	r23, 0x00	; 0
    20c2:	0e 94 4c 18 	call	0x3098	; 0x3098 <__divmodhi4>
    20c6:	70 93 0f 02 	sts	0x020F, r23
    20ca:	60 93 0e 02 	sts	0x020E, r22
    20ce:	20 91 0e 02 	lds	r18, 0x020E
    20d2:	30 91 0f 02 	lds	r19, 0x020F
    20d6:	c9 01       	movw	r24, r18
    20d8:	08 95       	ret

000020da <ultrasound_test>:
    20da:	84 e0       	ldi	r24, 0x04	; 4
    20dc:	90 e0       	ldi	r25, 0x00	; 0
    20de:	0e 94 ad 0f 	call	0x1f5a	; 0x1f5a <ultrasound_filter>
    20e2:	20 91 08 02 	lds	r18, 0x0208
    20e6:	30 91 09 02 	lds	r19, 0x0209
    20ea:	82 17       	cp	r24, r18
    20ec:	93 07       	cpc	r25, r19
    20ee:	74 f4       	brge	.+28     	; 0x210c <ultrasound_test+0x32>
    20f0:	84 e4       	ldi	r24, 0x44	; 68
    20f2:	62 e0       	ldi	r22, 0x02	; 2
    20f4:	70 e0       	ldi	r23, 0x00	; 0
    20f6:	41 e0       	ldi	r20, 0x01	; 1
    20f8:	50 e0       	ldi	r21, 0x00	; 0
    20fa:	0e 94 87 02 	call	0x50e	; 0x50e <out>
    20fe:	84 e0       	ldi	r24, 0x04	; 4
    2100:	90 e0       	ldi	r25, 0x00	; 0
    2102:	0e 94 ad 0f 	call	0x1f5a	; 0x1f5a <ultrasound_filter>
    2106:	0e 94 aa 0b 	call	0x1754	; 0x1754 <pwm2B>
    210a:	08 95       	ret
    210c:	84 e4       	ldi	r24, 0x44	; 68
    210e:	62 e0       	ldi	r22, 0x02	; 2
    2110:	70 e0       	ldi	r23, 0x00	; 0
    2112:	40 e0       	ldi	r20, 0x00	; 0
    2114:	50 e0       	ldi	r21, 0x00	; 0
    2116:	0e 94 87 02 	call	0x50e	; 0x50e <out>
    211a:	85 e0       	ldi	r24, 0x05	; 5
    211c:	90 e0       	ldi	r25, 0x00	; 0
    211e:	0e 94 ad 0f 	call	0x1f5a	; 0x1f5a <ultrasound_filter>
    2122:	0e 94 aa 0b 	call	0x1754	; 0x1754 <pwm2B>
    2126:	08 95       	ret

00002128 <can_turn_left>:
    2128:	84 e0       	ldi	r24, 0x04	; 4
    212a:	90 e0       	ldi	r25, 0x00	; 0
    212c:	0e 94 ad 0f 	call	0x1f5a	; 0x1f5a <ultrasound_filter>
    2130:	20 91 08 02 	lds	r18, 0x0208
    2134:	30 91 09 02 	lds	r19, 0x0209
    2138:	28 17       	cp	r18, r24
    213a:	39 07       	cpc	r19, r25
    213c:	5c f4       	brge	.+22     	; 0x2154 <can_turn_left+0x2c>
    213e:	85 e0       	ldi	r24, 0x05	; 5
    2140:	90 e0       	ldi	r25, 0x00	; 0
    2142:	0e 94 ad 0f 	call	0x1f5a	; 0x1f5a <ultrasound_filter>
    2146:	20 91 08 02 	lds	r18, 0x0208
    214a:	30 91 09 02 	lds	r19, 0x0209
    214e:	28 17       	cp	r18, r24
    2150:	39 07       	cpc	r19, r25
    2152:	7c f0       	brlt	.+30     	; 0x2172 <can_turn_left+0x4a>
    2154:	84 e0       	ldi	r24, 0x04	; 4
    2156:	90 e0       	ldi	r25, 0x00	; 0
    2158:	0e 94 ad 0f 	call	0x1f5a	; 0x1f5a <ultrasound_filter>
    215c:	20 91 08 02 	lds	r18, 0x0208
    2160:	30 91 09 02 	lds	r19, 0x0209
    2164:	28 17       	cp	r18, r24
    2166:	39 07       	cpc	r19, r25
    2168:	14 f0       	brlt	.+4      	; 0x216e <can_turn_left+0x46>
    216a:	80 e0       	ldi	r24, 0x00	; 0
    216c:	08 95       	ret
    216e:	86 e6       	ldi	r24, 0x66	; 102
    2170:	08 95       	ret
    2172:	84 e7       	ldi	r24, 0x74	; 116
    2174:	08 95       	ret

00002176 <calibrate>:
    2176:	85 e0       	ldi	r24, 0x05	; 5
    2178:	90 e0       	ldi	r25, 0x00	; 0
    217a:	0e 94 80 00 	call	0x100	; 0x100 <adc_change>
    217e:	20 e0       	ldi	r18, 0x00	; 0
    2180:	30 e0       	ldi	r19, 0x00	; 0
    2182:	40 e9       	ldi	r20, 0x90	; 144
    2184:	51 e0       	ldi	r21, 0x01	; 1
    2186:	ca 01       	movw	r24, r20
    2188:	01 97       	sbiw	r24, 0x01	; 1
    218a:	f1 f7       	brne	.-4      	; 0x2188 <calibrate+0x12>
    218c:	2f 5f       	subi	r18, 0xFF	; 255
    218e:	3f 4f       	sbci	r19, 0xFF	; 255
    2190:	28 3c       	cpi	r18, 0xC8	; 200
    2192:	31 05       	cpc	r19, r1
    2194:	c1 f7       	brne	.-16     	; 0x2186 <calibrate+0x10>
    2196:	80 91 79 00 	lds	r24, 0x0079
    219a:	90 e0       	ldi	r25, 0x00	; 0
    219c:	90 93 23 02 	sts	0x0223, r25
    21a0:	80 93 22 02 	sts	0x0222, r24
    21a4:	10 92 0d 02 	sts	0x020D, r1
    21a8:	10 92 0c 02 	sts	0x020C, r1
    21ac:	80 91 0c 02 	lds	r24, 0x020C
    21b0:	90 91 0d 02 	lds	r25, 0x020D
    21b4:	45 97       	sbiw	r24, 0x15	; 21
    21b6:	0c f4       	brge	.+2      	; 0x21ba <calibrate+0x44>
    21b8:	44 c0       	rjmp	.+136    	; 0x2242 <calibrate+0xcc>
    21ba:	60 c0       	rjmp	.+192    	; 0x227c <calibrate+0x106>
    21bc:	35 95       	asr	r19
    21be:	27 95       	ror	r18
    21c0:	82 0f       	add	r24, r18
    21c2:	93 1f       	adc	r25, r19
    21c4:	90 93 23 02 	sts	0x0223, r25
    21c8:	80 93 22 02 	sts	0x0222, r24
    21cc:	20 91 79 00 	lds	r18, 0x0079
    21d0:	80 91 0e 02 	lds	r24, 0x020E
    21d4:	90 91 0f 02 	lds	r25, 0x020F
    21d8:	30 e0       	ldi	r19, 0x00	; 0
    21da:	84 56       	subi	r24, 0x64	; 100
    21dc:	90 40       	sbci	r25, 0x00	; 0
    21de:	28 17       	cp	r18, r24
    21e0:	39 07       	cpc	r19, r25
    21e2:	94 f4       	brge	.+36     	; 0x2208 <calibrate+0x92>
    21e4:	80 91 79 00 	lds	r24, 0x0079
    21e8:	20 91 0e 02 	lds	r18, 0x020E
    21ec:	30 91 0f 02 	lds	r19, 0x020F
    21f0:	86 95       	lsr	r24
    21f2:	90 e0       	ldi	r25, 0x00	; 0
    21f4:	37 fd       	sbrc	r19, 7
    21f6:	3f c0       	rjmp	.+126    	; 0x2276 <calibrate+0x100>
    21f8:	35 95       	asr	r19
    21fa:	27 95       	ror	r18
    21fc:	82 0f       	add	r24, r18
    21fe:	93 1f       	adc	r25, r19
    2200:	90 93 23 02 	sts	0x0223, r25
    2204:	80 93 22 02 	sts	0x0222, r24
    2208:	e0 91 0c 02 	lds	r30, 0x020C
    220c:	f0 91 0d 02 	lds	r31, 0x020D
    2210:	80 91 22 02 	lds	r24, 0x0222
    2214:	90 91 23 02 	lds	r25, 0x0223
    2218:	ee 0f       	add	r30, r30
    221a:	ff 1f       	adc	r31, r31
    221c:	e2 5d       	subi	r30, 0xD2	; 210
    221e:	fd 4f       	sbci	r31, 0xFD	; 253
    2220:	91 83       	std	Z+1, r25	; 0x01
    2222:	80 83       	st	Z, r24
    2224:	80 91 0c 02 	lds	r24, 0x020C
    2228:	90 91 0d 02 	lds	r25, 0x020D
    222c:	01 96       	adiw	r24, 0x01	; 1
    222e:	90 93 0d 02 	sts	0x020D, r25
    2232:	80 93 0c 02 	sts	0x020C, r24
    2236:	80 91 0c 02 	lds	r24, 0x020C
    223a:	90 91 0d 02 	lds	r25, 0x020D
    223e:	45 97       	sbiw	r24, 0x15	; 21
    2240:	ec f4       	brge	.+58     	; 0x227c <calibrate+0x106>
    2242:	20 91 79 00 	lds	r18, 0x0079
    2246:	80 91 0e 02 	lds	r24, 0x020E
    224a:	90 91 0f 02 	lds	r25, 0x020F
    224e:	30 e0       	ldi	r19, 0x00	; 0
    2250:	8c 59       	subi	r24, 0x9C	; 156
    2252:	9f 4f       	sbci	r25, 0xFF	; 255
    2254:	82 17       	cp	r24, r18
    2256:	93 07       	cpc	r25, r19
    2258:	0c f0       	brlt	.+2      	; 0x225c <calibrate+0xe6>
    225a:	b8 cf       	rjmp	.-144    	; 0x21cc <calibrate+0x56>
    225c:	80 91 79 00 	lds	r24, 0x0079
    2260:	20 91 0e 02 	lds	r18, 0x020E
    2264:	30 91 0f 02 	lds	r19, 0x020F
    2268:	86 95       	lsr	r24
    226a:	90 e0       	ldi	r25, 0x00	; 0
    226c:	37 ff       	sbrs	r19, 7
    226e:	a6 cf       	rjmp	.-180    	; 0x21bc <calibrate+0x46>
    2270:	2f 5f       	subi	r18, 0xFF	; 255
    2272:	3f 4f       	sbci	r19, 0xFF	; 255
    2274:	a3 cf       	rjmp	.-186    	; 0x21bc <calibrate+0x46>
    2276:	2f 5f       	subi	r18, 0xFF	; 255
    2278:	3f 4f       	sbci	r19, 0xFF	; 255
    227a:	be cf       	rjmp	.-132    	; 0x21f8 <calibrate+0x82>
    227c:	10 92 0d 02 	sts	0x020D, r1
    2280:	10 92 0c 02 	sts	0x020C, r1
    2284:	80 91 0c 02 	lds	r24, 0x020C
    2288:	90 91 0d 02 	lds	r25, 0x020D
    228c:	45 97       	sbiw	r24, 0x15	; 21
    228e:	1c f5       	brge	.+70     	; 0x22d6 <calibrate+0x160>
    2290:	e0 91 0c 02 	lds	r30, 0x020C
    2294:	f0 91 0d 02 	lds	r31, 0x020D
    2298:	ee 0f       	add	r30, r30
    229a:	ff 1f       	adc	r31, r31
    229c:	e2 5d       	subi	r30, 0xD2	; 210
    229e:	fd 4f       	sbci	r31, 0xFD	; 253
    22a0:	80 81       	ld	r24, Z
    22a2:	91 81       	ldd	r25, Z+1	; 0x01
    22a4:	20 91 0e 02 	lds	r18, 0x020E
    22a8:	30 91 0f 02 	lds	r19, 0x020F
    22ac:	82 0f       	add	r24, r18
    22ae:	93 1f       	adc	r25, r19
    22b0:	90 93 0f 02 	sts	0x020F, r25
    22b4:	80 93 0e 02 	sts	0x020E, r24
    22b8:	80 91 0c 02 	lds	r24, 0x020C
    22bc:	90 91 0d 02 	lds	r25, 0x020D
    22c0:	01 96       	adiw	r24, 0x01	; 1
    22c2:	90 93 0d 02 	sts	0x020D, r25
    22c6:	80 93 0c 02 	sts	0x020C, r24
    22ca:	80 91 0c 02 	lds	r24, 0x020C
    22ce:	90 91 0d 02 	lds	r25, 0x020D
    22d2:	45 97       	sbiw	r24, 0x15	; 21
    22d4:	ec f2       	brlt	.-70     	; 0x2290 <calibrate+0x11a>
    22d6:	80 91 0e 02 	lds	r24, 0x020E
    22da:	90 91 0f 02 	lds	r25, 0x020F
    22de:	62 e1       	ldi	r22, 0x12	; 18
    22e0:	70 e0       	ldi	r23, 0x00	; 0
    22e2:	0e 94 4c 18 	call	0x3098	; 0x3098 <__divmodhi4>
    22e6:	70 93 0f 02 	sts	0x020F, r23
    22ea:	60 93 0e 02 	sts	0x020E, r22
    22ee:	80 91 0e 02 	lds	r24, 0x020E
    22f2:	90 91 0f 02 	lds	r25, 0x020F
    22f6:	90 93 09 02 	sts	0x0209, r25
    22fa:	80 93 08 02 	sts	0x0208, r24
    22fe:	10 92 0d 02 	sts	0x020D, r1
    2302:	10 92 0c 02 	sts	0x020C, r1
    2306:	80 91 0c 02 	lds	r24, 0x020C
    230a:	90 91 0d 02 	lds	r25, 0x020D
    230e:	45 97       	sbiw	r24, 0x15	; 21
    2310:	cc f4       	brge	.+50     	; 0x2344 <calibrate+0x1ce>
    2312:	e0 91 0c 02 	lds	r30, 0x020C
    2316:	f0 91 0d 02 	lds	r31, 0x020D
    231a:	ee 0f       	add	r30, r30
    231c:	ff 1f       	adc	r31, r31
    231e:	e2 5d       	subi	r30, 0xD2	; 210
    2320:	fd 4f       	sbci	r31, 0xFD	; 253
    2322:	11 82       	std	Z+1, r1	; 0x01
    2324:	10 82       	st	Z, r1
    2326:	80 91 0c 02 	lds	r24, 0x020C
    232a:	90 91 0d 02 	lds	r25, 0x020D
    232e:	01 96       	adiw	r24, 0x01	; 1
    2330:	90 93 0d 02 	sts	0x020D, r25
    2334:	80 93 0c 02 	sts	0x020C, r24
    2338:	80 91 0c 02 	lds	r24, 0x020C
    233c:	90 91 0d 02 	lds	r25, 0x020D
    2340:	45 97       	sbiw	r24, 0x15	; 21
    2342:	3c f3       	brlt	.-50     	; 0x2312 <calibrate+0x19c>
    2344:	08 95       	ret

00002346 <turn_right>:
    2346:	8f ef       	ldi	r24, 0xFF	; 255
    2348:	90 e0       	ldi	r25, 0x00	; 0
    234a:	0e 94 62 07 	call	0xec4	; 0xec4 <pwm1B>
    234e:	20 e0       	ldi	r18, 0x00	; 0
    2350:	30 e0       	ldi	r19, 0x00	; 0
    2352:	40 e9       	ldi	r20, 0x90	; 144
    2354:	51 e0       	ldi	r21, 0x01	; 1
    2356:	ca 01       	movw	r24, r20
    2358:	01 97       	sbiw	r24, 0x01	; 1
    235a:	f1 f7       	brne	.-4      	; 0x2358 <turn_right+0x12>
    235c:	2f 5f       	subi	r18, 0xFF	; 255
    235e:	3f 4f       	sbci	r19, 0xFF	; 255
    2360:	87 e0       	ldi	r24, 0x07	; 7
    2362:	20 3d       	cpi	r18, 0xD0	; 208
    2364:	38 07       	cpc	r19, r24
    2366:	b9 f7       	brne	.-18     	; 0x2356 <turn_right+0x10>
    2368:	80 e0       	ldi	r24, 0x00	; 0
    236a:	90 e0       	ldi	r25, 0x00	; 0
    236c:	0e 94 62 07 	call	0xec4	; 0xec4 <pwm1B>
    2370:	08 95       	ret

00002372 <turn_left>:
    2372:	84 e0       	ldi	r24, 0x04	; 4
    2374:	90 e0       	ldi	r25, 0x00	; 0
    2376:	0e 94 ad 0f 	call	0x1f5a	; 0x1f5a <ultrasound_filter>
    237a:	20 91 08 02 	lds	r18, 0x0208
    237e:	30 91 09 02 	lds	r19, 0x0209
    2382:	28 17       	cp	r18, r24
    2384:	39 07       	cpc	r19, r25
    2386:	0c f0       	brlt	.+2      	; 0x238a <turn_left+0x18>
    2388:	08 95       	ret
    238a:	85 e0       	ldi	r24, 0x05	; 5
    238c:	90 e0       	ldi	r25, 0x00	; 0
    238e:	0e 94 ad 0f 	call	0x1f5a	; 0x1f5a <ultrasound_filter>
    2392:	20 91 08 02 	lds	r18, 0x0208
    2396:	30 91 09 02 	lds	r19, 0x0209
    239a:	28 17       	cp	r18, r24
    239c:	39 07       	cpc	r19, r25
    239e:	a4 f7       	brge	.-24     	; 0x2388 <turn_left+0x16>
    23a0:	84 e4       	ldi	r24, 0x44	; 68
    23a2:	64 e0       	ldi	r22, 0x04	; 4
    23a4:	70 e0       	ldi	r23, 0x00	; 0
    23a6:	41 e0       	ldi	r20, 0x01	; 1
    23a8:	50 e0       	ldi	r21, 0x00	; 0
    23aa:	0e 94 87 02 	call	0x50e	; 0x50e <out>
    23ae:	80 e2       	ldi	r24, 0x20	; 32
    23b0:	9e e4       	ldi	r25, 0x4E	; 78
    23b2:	01 97       	sbiw	r24, 0x01	; 1
    23b4:	f1 f7       	brne	.-4      	; 0x23b2 <turn_left+0x40>
    23b6:	8f ef       	ldi	r24, 0xFF	; 255
    23b8:	90 e0       	ldi	r25, 0x00	; 0
    23ba:	0e 94 62 07 	call	0xec4	; 0xec4 <pwm1B>
    23be:	20 e0       	ldi	r18, 0x00	; 0
    23c0:	30 e0       	ldi	r19, 0x00	; 0
    23c2:	40 e9       	ldi	r20, 0x90	; 144
    23c4:	51 e0       	ldi	r21, 0x01	; 1
    23c6:	ca 01       	movw	r24, r20
    23c8:	01 97       	sbiw	r24, 0x01	; 1
    23ca:	f1 f7       	brne	.-4      	; 0x23c8 <turn_left+0x56>
    23cc:	2f 5f       	subi	r18, 0xFF	; 255
    23ce:	3f 4f       	sbci	r19, 0xFF	; 255
    23d0:	87 e0       	ldi	r24, 0x07	; 7
    23d2:	20 3d       	cpi	r18, 0xD0	; 208
    23d4:	38 07       	cpc	r19, r24
    23d6:	b9 f7       	brne	.-18     	; 0x23c6 <turn_left+0x54>
    23d8:	80 e0       	ldi	r24, 0x00	; 0
    23da:	90 e0       	ldi	r25, 0x00	; 0
    23dc:	0e 94 62 07 	call	0xec4	; 0xec4 <pwm1B>
    23e0:	84 e4       	ldi	r24, 0x44	; 68
    23e2:	64 e0       	ldi	r22, 0x04	; 4
    23e4:	70 e0       	ldi	r23, 0x00	; 0
    23e6:	40 e0       	ldi	r20, 0x00	; 0
    23e8:	50 e0       	ldi	r21, 0x00	; 0
    23ea:	0e 94 87 02 	call	0x50e	; 0x50e <out>
    23ee:	08 95       	ret

000023f0 <stop>:
    23f0:	80 e0       	ldi	r24, 0x00	; 0
    23f2:	90 e0       	ldi	r25, 0x00	; 0
    23f4:	0e 94 55 03 	call	0x6aa	; 0x6aa <pwm0A>
    23f8:	80 e0       	ldi	r24, 0x00	; 0
    23fa:	90 e0       	ldi	r25, 0x00	; 0
    23fc:	0e 94 5a 03 	call	0x6b4	; 0x6b4 <pwm0B>
    2400:	80 e0       	ldi	r24, 0x00	; 0
    2402:	90 e0       	ldi	r25, 0x00	; 0
    2404:	0e 94 58 07 	call	0xeb0	; 0xeb0 <pwm1A>
    2408:	80 e0       	ldi	r24, 0x00	; 0
    240a:	90 e0       	ldi	r25, 0x00	; 0
    240c:	0e 94 62 07 	call	0xec4	; 0xec4 <pwm1B>
    2410:	80 e0       	ldi	r24, 0x00	; 0
    2412:	90 e0       	ldi	r25, 0x00	; 0
    2414:	0e 94 a2 0b 	call	0x1744	; 0x1744 <pwm2A>
    2418:	80 e0       	ldi	r24, 0x00	; 0
    241a:	90 e0       	ldi	r25, 0x00	; 0
    241c:	0e 94 aa 0b 	call	0x1754	; 0x1754 <pwm2B>
    2420:	84 e4       	ldi	r24, 0x44	; 68
    2422:	62 e0       	ldi	r22, 0x02	; 2
    2424:	70 e0       	ldi	r23, 0x00	; 0
    2426:	41 e0       	ldi	r20, 0x01	; 1
    2428:	50 e0       	ldi	r21, 0x00	; 0
    242a:	0e 94 87 02 	call	0x50e	; 0x50e <out>
    242e:	81 e0       	ldi	r24, 0x01	; 1
    2430:	90 e0       	ldi	r25, 0x00	; 0
    2432:	0e 94 07 02 	call	0x40e	; 0x40e <error>
    2436:	84 e4       	ldi	r24, 0x44	; 68
    2438:	64 e0       	ldi	r22, 0x04	; 4
    243a:	70 e0       	ldi	r23, 0x00	; 0
    243c:	40 e0       	ldi	r20, 0x00	; 0
    243e:	50 e0       	ldi	r21, 0x00	; 0
    2440:	0e 94 87 02 	call	0x50e	; 0x50e <out>
    2444:	84 e4       	ldi	r24, 0x44	; 68
    2446:	65 e0       	ldi	r22, 0x05	; 5
    2448:	70 e0       	ldi	r23, 0x00	; 0
    244a:	40 e0       	ldi	r20, 0x00	; 0
    244c:	50 e0       	ldi	r21, 0x00	; 0
    244e:	0e 94 87 02 	call	0x50e	; 0x50e <out>
    2452:	08 95       	ret

00002454 <__fixunssfsi>:
    2454:	ef 92       	push	r14
    2456:	ff 92       	push	r15
    2458:	0f 93       	push	r16
    245a:	1f 93       	push	r17
    245c:	7b 01       	movw	r14, r22
    245e:	8c 01       	movw	r16, r24
    2460:	20 e0       	ldi	r18, 0x00	; 0
    2462:	30 e0       	ldi	r19, 0x00	; 0
    2464:	40 e0       	ldi	r20, 0x00	; 0
    2466:	5f e4       	ldi	r21, 0x4F	; 79
    2468:	0e 94 2a 15 	call	0x2a54	; 0x2a54 <__gesf2>
    246c:	88 23       	and	r24, r24
    246e:	8c f0       	brlt	.+34     	; 0x2492 <__fixunssfsi+0x3e>
    2470:	c8 01       	movw	r24, r16
    2472:	b7 01       	movw	r22, r14
    2474:	20 e0       	ldi	r18, 0x00	; 0
    2476:	30 e0       	ldi	r19, 0x00	; 0
    2478:	40 e0       	ldi	r20, 0x00	; 0
    247a:	5f e4       	ldi	r21, 0x4F	; 79
    247c:	0e 94 a2 13 	call	0x2744	; 0x2744 <__subsf3>
    2480:	0e 94 8a 15 	call	0x2b14	; 0x2b14 <__fixsfsi>
    2484:	9b 01       	movw	r18, r22
    2486:	ac 01       	movw	r20, r24
    2488:	20 50       	subi	r18, 0x00	; 0
    248a:	30 40       	sbci	r19, 0x00	; 0
    248c:	40 40       	sbci	r20, 0x00	; 0
    248e:	50 48       	sbci	r21, 0x80	; 128
    2490:	06 c0       	rjmp	.+12     	; 0x249e <__fixunssfsi+0x4a>
    2492:	c8 01       	movw	r24, r16
    2494:	b7 01       	movw	r22, r14
    2496:	0e 94 8a 15 	call	0x2b14	; 0x2b14 <__fixsfsi>
    249a:	9b 01       	movw	r18, r22
    249c:	ac 01       	movw	r20, r24
    249e:	b9 01       	movw	r22, r18
    24a0:	ca 01       	movw	r24, r20
    24a2:	1f 91       	pop	r17
    24a4:	0f 91       	pop	r16
    24a6:	ff 90       	pop	r15
    24a8:	ef 90       	pop	r14
    24aa:	08 95       	ret

000024ac <_fpadd_parts>:
    24ac:	a0 e0       	ldi	r26, 0x00	; 0
    24ae:	b0 e0       	ldi	r27, 0x00	; 0
    24b0:	ec e5       	ldi	r30, 0x5C	; 92
    24b2:	f2 e1       	ldi	r31, 0x12	; 18
    24b4:	0c 94 73 18 	jmp	0x30e6	; 0x30e6 <__prologue_saves__>
    24b8:	dc 01       	movw	r26, r24
    24ba:	2b 01       	movw	r4, r22
    24bc:	fa 01       	movw	r30, r20
    24be:	9c 91       	ld	r25, X
    24c0:	92 30       	cpi	r25, 0x02	; 2
    24c2:	08 f4       	brcc	.+2      	; 0x24c6 <_fpadd_parts+0x1a>
    24c4:	39 c1       	rjmp	.+626    	; 0x2738 <_fpadd_parts+0x28c>
    24c6:	eb 01       	movw	r28, r22
    24c8:	88 81       	ld	r24, Y
    24ca:	82 30       	cpi	r24, 0x02	; 2
    24cc:	08 f4       	brcc	.+2      	; 0x24d0 <_fpadd_parts+0x24>
    24ce:	33 c1       	rjmp	.+614    	; 0x2736 <_fpadd_parts+0x28a>
    24d0:	94 30       	cpi	r25, 0x04	; 4
    24d2:	69 f4       	brne	.+26     	; 0x24ee <_fpadd_parts+0x42>
    24d4:	84 30       	cpi	r24, 0x04	; 4
    24d6:	09 f0       	breq	.+2      	; 0x24da <_fpadd_parts+0x2e>
    24d8:	2f c1       	rjmp	.+606    	; 0x2738 <_fpadd_parts+0x28c>
    24da:	11 96       	adiw	r26, 0x01	; 1
    24dc:	9c 91       	ld	r25, X
    24de:	11 97       	sbiw	r26, 0x01	; 1
    24e0:	89 81       	ldd	r24, Y+1	; 0x01
    24e2:	98 17       	cp	r25, r24
    24e4:	09 f4       	brne	.+2      	; 0x24e8 <_fpadd_parts+0x3c>
    24e6:	28 c1       	rjmp	.+592    	; 0x2738 <_fpadd_parts+0x28c>
    24e8:	a0 e0       	ldi	r26, 0x00	; 0
    24ea:	b1 e0       	ldi	r27, 0x01	; 1
    24ec:	25 c1       	rjmp	.+586    	; 0x2738 <_fpadd_parts+0x28c>
    24ee:	84 30       	cpi	r24, 0x04	; 4
    24f0:	09 f4       	brne	.+2      	; 0x24f4 <_fpadd_parts+0x48>
    24f2:	21 c1       	rjmp	.+578    	; 0x2736 <_fpadd_parts+0x28a>
    24f4:	82 30       	cpi	r24, 0x02	; 2
    24f6:	a9 f4       	brne	.+42     	; 0x2522 <_fpadd_parts+0x76>
    24f8:	92 30       	cpi	r25, 0x02	; 2
    24fa:	09 f0       	breq	.+2      	; 0x24fe <_fpadd_parts+0x52>
    24fc:	1d c1       	rjmp	.+570    	; 0x2738 <_fpadd_parts+0x28c>
    24fe:	9a 01       	movw	r18, r20
    2500:	ad 01       	movw	r20, r26
    2502:	88 e0       	ldi	r24, 0x08	; 8
    2504:	ea 01       	movw	r28, r20
    2506:	09 90       	ld	r0, Y+
    2508:	ae 01       	movw	r20, r28
    250a:	e9 01       	movw	r28, r18
    250c:	09 92       	st	Y+, r0
    250e:	9e 01       	movw	r18, r28
    2510:	81 50       	subi	r24, 0x01	; 1
    2512:	c1 f7       	brne	.-16     	; 0x2504 <_fpadd_parts+0x58>
    2514:	e2 01       	movw	r28, r4
    2516:	89 81       	ldd	r24, Y+1	; 0x01
    2518:	11 96       	adiw	r26, 0x01	; 1
    251a:	9c 91       	ld	r25, X
    251c:	89 23       	and	r24, r25
    251e:	81 83       	std	Z+1, r24	; 0x01
    2520:	08 c1       	rjmp	.+528    	; 0x2732 <_fpadd_parts+0x286>
    2522:	92 30       	cpi	r25, 0x02	; 2
    2524:	09 f4       	brne	.+2      	; 0x2528 <_fpadd_parts+0x7c>
    2526:	07 c1       	rjmp	.+526    	; 0x2736 <_fpadd_parts+0x28a>
    2528:	12 96       	adiw	r26, 0x02	; 2
    252a:	2d 90       	ld	r2, X+
    252c:	3c 90       	ld	r3, X
    252e:	13 97       	sbiw	r26, 0x03	; 3
    2530:	eb 01       	movw	r28, r22
    2532:	8a 81       	ldd	r24, Y+2	; 0x02
    2534:	9b 81       	ldd	r25, Y+3	; 0x03
    2536:	14 96       	adiw	r26, 0x04	; 4
    2538:	ad 90       	ld	r10, X+
    253a:	bd 90       	ld	r11, X+
    253c:	cd 90       	ld	r12, X+
    253e:	dc 90       	ld	r13, X
    2540:	17 97       	sbiw	r26, 0x07	; 7
    2542:	ec 80       	ldd	r14, Y+4	; 0x04
    2544:	fd 80       	ldd	r15, Y+5	; 0x05
    2546:	0e 81       	ldd	r16, Y+6	; 0x06
    2548:	1f 81       	ldd	r17, Y+7	; 0x07
    254a:	91 01       	movw	r18, r2
    254c:	28 1b       	sub	r18, r24
    254e:	39 0b       	sbc	r19, r25
    2550:	b9 01       	movw	r22, r18
    2552:	37 ff       	sbrs	r19, 7
    2554:	04 c0       	rjmp	.+8      	; 0x255e <_fpadd_parts+0xb2>
    2556:	66 27       	eor	r22, r22
    2558:	77 27       	eor	r23, r23
    255a:	62 1b       	sub	r22, r18
    255c:	73 0b       	sbc	r23, r19
    255e:	60 32       	cpi	r22, 0x20	; 32
    2560:	71 05       	cpc	r23, r1
    2562:	0c f0       	brlt	.+2      	; 0x2566 <_fpadd_parts+0xba>
    2564:	61 c0       	rjmp	.+194    	; 0x2628 <_fpadd_parts+0x17c>
    2566:	12 16       	cp	r1, r18
    2568:	13 06       	cpc	r1, r19
    256a:	6c f5       	brge	.+90     	; 0x25c6 <_fpadd_parts+0x11a>
    256c:	37 01       	movw	r6, r14
    256e:	48 01       	movw	r8, r16
    2570:	06 2e       	mov	r0, r22
    2572:	04 c0       	rjmp	.+8      	; 0x257c <_fpadd_parts+0xd0>
    2574:	96 94       	lsr	r9
    2576:	87 94       	ror	r8
    2578:	77 94       	ror	r7
    257a:	67 94       	ror	r6
    257c:	0a 94       	dec	r0
    257e:	d2 f7       	brpl	.-12     	; 0x2574 <_fpadd_parts+0xc8>
    2580:	21 e0       	ldi	r18, 0x01	; 1
    2582:	30 e0       	ldi	r19, 0x00	; 0
    2584:	40 e0       	ldi	r20, 0x00	; 0
    2586:	50 e0       	ldi	r21, 0x00	; 0
    2588:	04 c0       	rjmp	.+8      	; 0x2592 <_fpadd_parts+0xe6>
    258a:	22 0f       	add	r18, r18
    258c:	33 1f       	adc	r19, r19
    258e:	44 1f       	adc	r20, r20
    2590:	55 1f       	adc	r21, r21
    2592:	6a 95       	dec	r22
    2594:	d2 f7       	brpl	.-12     	; 0x258a <_fpadd_parts+0xde>
    2596:	21 50       	subi	r18, 0x01	; 1
    2598:	30 40       	sbci	r19, 0x00	; 0
    259a:	40 40       	sbci	r20, 0x00	; 0
    259c:	50 40       	sbci	r21, 0x00	; 0
    259e:	2e 21       	and	r18, r14
    25a0:	3f 21       	and	r19, r15
    25a2:	40 23       	and	r20, r16
    25a4:	51 23       	and	r21, r17
    25a6:	21 15       	cp	r18, r1
    25a8:	31 05       	cpc	r19, r1
    25aa:	41 05       	cpc	r20, r1
    25ac:	51 05       	cpc	r21, r1
    25ae:	21 f0       	breq	.+8      	; 0x25b8 <_fpadd_parts+0x10c>
    25b0:	21 e0       	ldi	r18, 0x01	; 1
    25b2:	30 e0       	ldi	r19, 0x00	; 0
    25b4:	40 e0       	ldi	r20, 0x00	; 0
    25b6:	50 e0       	ldi	r21, 0x00	; 0
    25b8:	79 01       	movw	r14, r18
    25ba:	8a 01       	movw	r16, r20
    25bc:	e6 28       	or	r14, r6
    25be:	f7 28       	or	r15, r7
    25c0:	08 29       	or	r16, r8
    25c2:	19 29       	or	r17, r9
    25c4:	3c c0       	rjmp	.+120    	; 0x263e <_fpadd_parts+0x192>
    25c6:	23 2b       	or	r18, r19
    25c8:	d1 f1       	breq	.+116    	; 0x263e <_fpadd_parts+0x192>
    25ca:	26 0e       	add	r2, r22
    25cc:	37 1e       	adc	r3, r23
    25ce:	35 01       	movw	r6, r10
    25d0:	46 01       	movw	r8, r12
    25d2:	06 2e       	mov	r0, r22
    25d4:	04 c0       	rjmp	.+8      	; 0x25de <_fpadd_parts+0x132>
    25d6:	96 94       	lsr	r9
    25d8:	87 94       	ror	r8
    25da:	77 94       	ror	r7
    25dc:	67 94       	ror	r6
    25de:	0a 94       	dec	r0
    25e0:	d2 f7       	brpl	.-12     	; 0x25d6 <_fpadd_parts+0x12a>
    25e2:	21 e0       	ldi	r18, 0x01	; 1
    25e4:	30 e0       	ldi	r19, 0x00	; 0
    25e6:	40 e0       	ldi	r20, 0x00	; 0
    25e8:	50 e0       	ldi	r21, 0x00	; 0
    25ea:	04 c0       	rjmp	.+8      	; 0x25f4 <_fpadd_parts+0x148>
    25ec:	22 0f       	add	r18, r18
    25ee:	33 1f       	adc	r19, r19
    25f0:	44 1f       	adc	r20, r20
    25f2:	55 1f       	adc	r21, r21
    25f4:	6a 95       	dec	r22
    25f6:	d2 f7       	brpl	.-12     	; 0x25ec <_fpadd_parts+0x140>
    25f8:	21 50       	subi	r18, 0x01	; 1
    25fa:	30 40       	sbci	r19, 0x00	; 0
    25fc:	40 40       	sbci	r20, 0x00	; 0
    25fe:	50 40       	sbci	r21, 0x00	; 0
    2600:	2a 21       	and	r18, r10
    2602:	3b 21       	and	r19, r11
    2604:	4c 21       	and	r20, r12
    2606:	5d 21       	and	r21, r13
    2608:	21 15       	cp	r18, r1
    260a:	31 05       	cpc	r19, r1
    260c:	41 05       	cpc	r20, r1
    260e:	51 05       	cpc	r21, r1
    2610:	21 f0       	breq	.+8      	; 0x261a <_fpadd_parts+0x16e>
    2612:	21 e0       	ldi	r18, 0x01	; 1
    2614:	30 e0       	ldi	r19, 0x00	; 0
    2616:	40 e0       	ldi	r20, 0x00	; 0
    2618:	50 e0       	ldi	r21, 0x00	; 0
    261a:	59 01       	movw	r10, r18
    261c:	6a 01       	movw	r12, r20
    261e:	a6 28       	or	r10, r6
    2620:	b7 28       	or	r11, r7
    2622:	c8 28       	or	r12, r8
    2624:	d9 28       	or	r13, r9
    2626:	0b c0       	rjmp	.+22     	; 0x263e <_fpadd_parts+0x192>
    2628:	82 15       	cp	r24, r2
    262a:	93 05       	cpc	r25, r3
    262c:	2c f0       	brlt	.+10     	; 0x2638 <_fpadd_parts+0x18c>
    262e:	1c 01       	movw	r2, r24
    2630:	aa 24       	eor	r10, r10
    2632:	bb 24       	eor	r11, r11
    2634:	65 01       	movw	r12, r10
    2636:	03 c0       	rjmp	.+6      	; 0x263e <_fpadd_parts+0x192>
    2638:	ee 24       	eor	r14, r14
    263a:	ff 24       	eor	r15, r15
    263c:	87 01       	movw	r16, r14
    263e:	11 96       	adiw	r26, 0x01	; 1
    2640:	9c 91       	ld	r25, X
    2642:	d2 01       	movw	r26, r4
    2644:	11 96       	adiw	r26, 0x01	; 1
    2646:	8c 91       	ld	r24, X
    2648:	98 17       	cp	r25, r24
    264a:	09 f4       	brne	.+2      	; 0x264e <_fpadd_parts+0x1a2>
    264c:	45 c0       	rjmp	.+138    	; 0x26d8 <_fpadd_parts+0x22c>
    264e:	99 23       	and	r25, r25
    2650:	39 f0       	breq	.+14     	; 0x2660 <_fpadd_parts+0x1b4>
    2652:	a8 01       	movw	r20, r16
    2654:	97 01       	movw	r18, r14
    2656:	2a 19       	sub	r18, r10
    2658:	3b 09       	sbc	r19, r11
    265a:	4c 09       	sbc	r20, r12
    265c:	5d 09       	sbc	r21, r13
    265e:	06 c0       	rjmp	.+12     	; 0x266c <_fpadd_parts+0x1c0>
    2660:	a6 01       	movw	r20, r12
    2662:	95 01       	movw	r18, r10
    2664:	2e 19       	sub	r18, r14
    2666:	3f 09       	sbc	r19, r15
    2668:	40 0b       	sbc	r20, r16
    266a:	51 0b       	sbc	r21, r17
    266c:	57 fd       	sbrc	r21, 7
    266e:	08 c0       	rjmp	.+16     	; 0x2680 <_fpadd_parts+0x1d4>
    2670:	11 82       	std	Z+1, r1	; 0x01
    2672:	33 82       	std	Z+3, r3	; 0x03
    2674:	22 82       	std	Z+2, r2	; 0x02
    2676:	24 83       	std	Z+4, r18	; 0x04
    2678:	35 83       	std	Z+5, r19	; 0x05
    267a:	46 83       	std	Z+6, r20	; 0x06
    267c:	57 83       	std	Z+7, r21	; 0x07
    267e:	1d c0       	rjmp	.+58     	; 0x26ba <_fpadd_parts+0x20e>
    2680:	81 e0       	ldi	r24, 0x01	; 1
    2682:	81 83       	std	Z+1, r24	; 0x01
    2684:	33 82       	std	Z+3, r3	; 0x03
    2686:	22 82       	std	Z+2, r2	; 0x02
    2688:	88 27       	eor	r24, r24
    268a:	99 27       	eor	r25, r25
    268c:	dc 01       	movw	r26, r24
    268e:	82 1b       	sub	r24, r18
    2690:	93 0b       	sbc	r25, r19
    2692:	a4 0b       	sbc	r26, r20
    2694:	b5 0b       	sbc	r27, r21
    2696:	84 83       	std	Z+4, r24	; 0x04
    2698:	95 83       	std	Z+5, r25	; 0x05
    269a:	a6 83       	std	Z+6, r26	; 0x06
    269c:	b7 83       	std	Z+7, r27	; 0x07
    269e:	0d c0       	rjmp	.+26     	; 0x26ba <_fpadd_parts+0x20e>
    26a0:	22 0f       	add	r18, r18
    26a2:	33 1f       	adc	r19, r19
    26a4:	44 1f       	adc	r20, r20
    26a6:	55 1f       	adc	r21, r21
    26a8:	24 83       	std	Z+4, r18	; 0x04
    26aa:	35 83       	std	Z+5, r19	; 0x05
    26ac:	46 83       	std	Z+6, r20	; 0x06
    26ae:	57 83       	std	Z+7, r21	; 0x07
    26b0:	82 81       	ldd	r24, Z+2	; 0x02
    26b2:	93 81       	ldd	r25, Z+3	; 0x03
    26b4:	01 97       	sbiw	r24, 0x01	; 1
    26b6:	93 83       	std	Z+3, r25	; 0x03
    26b8:	82 83       	std	Z+2, r24	; 0x02
    26ba:	24 81       	ldd	r18, Z+4	; 0x04
    26bc:	35 81       	ldd	r19, Z+5	; 0x05
    26be:	46 81       	ldd	r20, Z+6	; 0x06
    26c0:	57 81       	ldd	r21, Z+7	; 0x07
    26c2:	da 01       	movw	r26, r20
    26c4:	c9 01       	movw	r24, r18
    26c6:	01 97       	sbiw	r24, 0x01	; 1
    26c8:	a1 09       	sbc	r26, r1
    26ca:	b1 09       	sbc	r27, r1
    26cc:	8f 5f       	subi	r24, 0xFF	; 255
    26ce:	9f 4f       	sbci	r25, 0xFF	; 255
    26d0:	af 4f       	sbci	r26, 0xFF	; 255
    26d2:	bf 43       	sbci	r27, 0x3F	; 63
    26d4:	28 f3       	brcs	.-54     	; 0x26a0 <_fpadd_parts+0x1f4>
    26d6:	0b c0       	rjmp	.+22     	; 0x26ee <_fpadd_parts+0x242>
    26d8:	91 83       	std	Z+1, r25	; 0x01
    26da:	33 82       	std	Z+3, r3	; 0x03
    26dc:	22 82       	std	Z+2, r2	; 0x02
    26de:	ea 0c       	add	r14, r10
    26e0:	fb 1c       	adc	r15, r11
    26e2:	0c 1d       	adc	r16, r12
    26e4:	1d 1d       	adc	r17, r13
    26e6:	e4 82       	std	Z+4, r14	; 0x04
    26e8:	f5 82       	std	Z+5, r15	; 0x05
    26ea:	06 83       	std	Z+6, r16	; 0x06
    26ec:	17 83       	std	Z+7, r17	; 0x07
    26ee:	83 e0       	ldi	r24, 0x03	; 3
    26f0:	80 83       	st	Z, r24
    26f2:	24 81       	ldd	r18, Z+4	; 0x04
    26f4:	35 81       	ldd	r19, Z+5	; 0x05
    26f6:	46 81       	ldd	r20, Z+6	; 0x06
    26f8:	57 81       	ldd	r21, Z+7	; 0x07
    26fa:	57 ff       	sbrs	r21, 7
    26fc:	1a c0       	rjmp	.+52     	; 0x2732 <_fpadd_parts+0x286>
    26fe:	c9 01       	movw	r24, r18
    2700:	aa 27       	eor	r26, r26
    2702:	97 fd       	sbrc	r25, 7
    2704:	a0 95       	com	r26
    2706:	ba 2f       	mov	r27, r26
    2708:	81 70       	andi	r24, 0x01	; 1
    270a:	90 70       	andi	r25, 0x00	; 0
    270c:	a0 70       	andi	r26, 0x00	; 0
    270e:	b0 70       	andi	r27, 0x00	; 0
    2710:	56 95       	lsr	r21
    2712:	47 95       	ror	r20
    2714:	37 95       	ror	r19
    2716:	27 95       	ror	r18
    2718:	82 2b       	or	r24, r18
    271a:	93 2b       	or	r25, r19
    271c:	a4 2b       	or	r26, r20
    271e:	b5 2b       	or	r27, r21
    2720:	84 83       	std	Z+4, r24	; 0x04
    2722:	95 83       	std	Z+5, r25	; 0x05
    2724:	a6 83       	std	Z+6, r26	; 0x06
    2726:	b7 83       	std	Z+7, r27	; 0x07
    2728:	82 81       	ldd	r24, Z+2	; 0x02
    272a:	93 81       	ldd	r25, Z+3	; 0x03
    272c:	01 96       	adiw	r24, 0x01	; 1
    272e:	93 83       	std	Z+3, r25	; 0x03
    2730:	82 83       	std	Z+2, r24	; 0x02
    2732:	df 01       	movw	r26, r30
    2734:	01 c0       	rjmp	.+2      	; 0x2738 <_fpadd_parts+0x28c>
    2736:	d2 01       	movw	r26, r4
    2738:	cd 01       	movw	r24, r26
    273a:	cd b7       	in	r28, 0x3d	; 61
    273c:	de b7       	in	r29, 0x3e	; 62
    273e:	e2 e1       	ldi	r30, 0x12	; 18
    2740:	0c 94 8f 18 	jmp	0x311e	; 0x311e <__epilogue_restores__>

00002744 <__subsf3>:
    2744:	a0 e2       	ldi	r26, 0x20	; 32
    2746:	b0 e0       	ldi	r27, 0x00	; 0
    2748:	e8 ea       	ldi	r30, 0xA8	; 168
    274a:	f3 e1       	ldi	r31, 0x13	; 19
    274c:	0c 94 7f 18 	jmp	0x30fe	; 0x30fe <__prologue_saves__+0x18>
    2750:	69 83       	std	Y+1, r22	; 0x01
    2752:	7a 83       	std	Y+2, r23	; 0x02
    2754:	8b 83       	std	Y+3, r24	; 0x03
    2756:	9c 83       	std	Y+4, r25	; 0x04
    2758:	2d 83       	std	Y+5, r18	; 0x05
    275a:	3e 83       	std	Y+6, r19	; 0x06
    275c:	4f 83       	std	Y+7, r20	; 0x07
    275e:	58 87       	std	Y+8, r21	; 0x08
    2760:	e9 e0       	ldi	r30, 0x09	; 9
    2762:	ee 2e       	mov	r14, r30
    2764:	f1 2c       	mov	r15, r1
    2766:	ec 0e       	add	r14, r28
    2768:	fd 1e       	adc	r15, r29
    276a:	ce 01       	movw	r24, r28
    276c:	01 96       	adiw	r24, 0x01	; 1
    276e:	b7 01       	movw	r22, r14
    2770:	0e 94 7b 17 	call	0x2ef6	; 0x2ef6 <__unpack_f>
    2774:	8e 01       	movw	r16, r28
    2776:	0f 5e       	subi	r16, 0xEF	; 239
    2778:	1f 4f       	sbci	r17, 0xFF	; 255
    277a:	ce 01       	movw	r24, r28
    277c:	05 96       	adiw	r24, 0x05	; 5
    277e:	b8 01       	movw	r22, r16
    2780:	0e 94 7b 17 	call	0x2ef6	; 0x2ef6 <__unpack_f>
    2784:	8a 89       	ldd	r24, Y+18	; 0x12
    2786:	91 e0       	ldi	r25, 0x01	; 1
    2788:	89 27       	eor	r24, r25
    278a:	8a 8b       	std	Y+18, r24	; 0x12
    278c:	c7 01       	movw	r24, r14
    278e:	b8 01       	movw	r22, r16
    2790:	ae 01       	movw	r20, r28
    2792:	47 5e       	subi	r20, 0xE7	; 231
    2794:	5f 4f       	sbci	r21, 0xFF	; 255
    2796:	0e 94 56 12 	call	0x24ac	; 0x24ac <_fpadd_parts>
    279a:	0e 94 a6 16 	call	0x2d4c	; 0x2d4c <__pack_f>
    279e:	a0 96       	adiw	r28, 0x20	; 32
    27a0:	e6 e0       	ldi	r30, 0x06	; 6
    27a2:	0c 94 9b 18 	jmp	0x3136	; 0x3136 <__epilogue_restores__+0x18>

000027a6 <__addsf3>:
    27a6:	a0 e2       	ldi	r26, 0x20	; 32
    27a8:	b0 e0       	ldi	r27, 0x00	; 0
    27aa:	e9 ed       	ldi	r30, 0xD9	; 217
    27ac:	f3 e1       	ldi	r31, 0x13	; 19
    27ae:	0c 94 7f 18 	jmp	0x30fe	; 0x30fe <__prologue_saves__+0x18>
    27b2:	69 83       	std	Y+1, r22	; 0x01
    27b4:	7a 83       	std	Y+2, r23	; 0x02
    27b6:	8b 83       	std	Y+3, r24	; 0x03
    27b8:	9c 83       	std	Y+4, r25	; 0x04
    27ba:	2d 83       	std	Y+5, r18	; 0x05
    27bc:	3e 83       	std	Y+6, r19	; 0x06
    27be:	4f 83       	std	Y+7, r20	; 0x07
    27c0:	58 87       	std	Y+8, r21	; 0x08
    27c2:	f9 e0       	ldi	r31, 0x09	; 9
    27c4:	ef 2e       	mov	r14, r31
    27c6:	f1 2c       	mov	r15, r1
    27c8:	ec 0e       	add	r14, r28
    27ca:	fd 1e       	adc	r15, r29
    27cc:	ce 01       	movw	r24, r28
    27ce:	01 96       	adiw	r24, 0x01	; 1
    27d0:	b7 01       	movw	r22, r14
    27d2:	0e 94 7b 17 	call	0x2ef6	; 0x2ef6 <__unpack_f>
    27d6:	8e 01       	movw	r16, r28
    27d8:	0f 5e       	subi	r16, 0xEF	; 239
    27da:	1f 4f       	sbci	r17, 0xFF	; 255
    27dc:	ce 01       	movw	r24, r28
    27de:	05 96       	adiw	r24, 0x05	; 5
    27e0:	b8 01       	movw	r22, r16
    27e2:	0e 94 7b 17 	call	0x2ef6	; 0x2ef6 <__unpack_f>
    27e6:	c7 01       	movw	r24, r14
    27e8:	b8 01       	movw	r22, r16
    27ea:	ae 01       	movw	r20, r28
    27ec:	47 5e       	subi	r20, 0xE7	; 231
    27ee:	5f 4f       	sbci	r21, 0xFF	; 255
    27f0:	0e 94 56 12 	call	0x24ac	; 0x24ac <_fpadd_parts>
    27f4:	0e 94 a6 16 	call	0x2d4c	; 0x2d4c <__pack_f>
    27f8:	a0 96       	adiw	r28, 0x20	; 32
    27fa:	e6 e0       	ldi	r30, 0x06	; 6
    27fc:	0c 94 9b 18 	jmp	0x3136	; 0x3136 <__epilogue_restores__+0x18>

00002800 <__mulsf3>:
    2800:	a0 e2       	ldi	r26, 0x20	; 32
    2802:	b0 e0       	ldi	r27, 0x00	; 0
    2804:	e6 e0       	ldi	r30, 0x06	; 6
    2806:	f4 e1       	ldi	r31, 0x14	; 20
    2808:	0c 94 73 18 	jmp	0x30e6	; 0x30e6 <__prologue_saves__>
    280c:	69 83       	std	Y+1, r22	; 0x01
    280e:	7a 83       	std	Y+2, r23	; 0x02
    2810:	8b 83       	std	Y+3, r24	; 0x03
    2812:	9c 83       	std	Y+4, r25	; 0x04
    2814:	2d 83       	std	Y+5, r18	; 0x05
    2816:	3e 83       	std	Y+6, r19	; 0x06
    2818:	4f 83       	std	Y+7, r20	; 0x07
    281a:	58 87       	std	Y+8, r21	; 0x08
    281c:	ce 01       	movw	r24, r28
    281e:	01 96       	adiw	r24, 0x01	; 1
    2820:	be 01       	movw	r22, r28
    2822:	67 5f       	subi	r22, 0xF7	; 247
    2824:	7f 4f       	sbci	r23, 0xFF	; 255
    2826:	0e 94 7b 17 	call	0x2ef6	; 0x2ef6 <__unpack_f>
    282a:	ce 01       	movw	r24, r28
    282c:	05 96       	adiw	r24, 0x05	; 5
    282e:	be 01       	movw	r22, r28
    2830:	6f 5e       	subi	r22, 0xEF	; 239
    2832:	7f 4f       	sbci	r23, 0xFF	; 255
    2834:	0e 94 7b 17 	call	0x2ef6	; 0x2ef6 <__unpack_f>
    2838:	99 85       	ldd	r25, Y+9	; 0x09
    283a:	92 30       	cpi	r25, 0x02	; 2
    283c:	88 f0       	brcs	.+34     	; 0x2860 <__mulsf3+0x60>
    283e:	89 89       	ldd	r24, Y+17	; 0x11
    2840:	82 30       	cpi	r24, 0x02	; 2
    2842:	c8 f0       	brcs	.+50     	; 0x2876 <__mulsf3+0x76>
    2844:	94 30       	cpi	r25, 0x04	; 4
    2846:	19 f4       	brne	.+6      	; 0x284e <__mulsf3+0x4e>
    2848:	82 30       	cpi	r24, 0x02	; 2
    284a:	51 f4       	brne	.+20     	; 0x2860 <__mulsf3+0x60>
    284c:	04 c0       	rjmp	.+8      	; 0x2856 <__mulsf3+0x56>
    284e:	84 30       	cpi	r24, 0x04	; 4
    2850:	29 f4       	brne	.+10     	; 0x285c <__mulsf3+0x5c>
    2852:	92 30       	cpi	r25, 0x02	; 2
    2854:	81 f4       	brne	.+32     	; 0x2876 <__mulsf3+0x76>
    2856:	80 e0       	ldi	r24, 0x00	; 0
    2858:	91 e0       	ldi	r25, 0x01	; 1
    285a:	c6 c0       	rjmp	.+396    	; 0x29e8 <__mulsf3+0x1e8>
    285c:	92 30       	cpi	r25, 0x02	; 2
    285e:	49 f4       	brne	.+18     	; 0x2872 <__mulsf3+0x72>
    2860:	20 e0       	ldi	r18, 0x00	; 0
    2862:	9a 85       	ldd	r25, Y+10	; 0x0a
    2864:	8a 89       	ldd	r24, Y+18	; 0x12
    2866:	98 13       	cpse	r25, r24
    2868:	21 e0       	ldi	r18, 0x01	; 1
    286a:	2a 87       	std	Y+10, r18	; 0x0a
    286c:	ce 01       	movw	r24, r28
    286e:	09 96       	adiw	r24, 0x09	; 9
    2870:	bb c0       	rjmp	.+374    	; 0x29e8 <__mulsf3+0x1e8>
    2872:	82 30       	cpi	r24, 0x02	; 2
    2874:	49 f4       	brne	.+18     	; 0x2888 <__mulsf3+0x88>
    2876:	20 e0       	ldi	r18, 0x00	; 0
    2878:	9a 85       	ldd	r25, Y+10	; 0x0a
    287a:	8a 89       	ldd	r24, Y+18	; 0x12
    287c:	98 13       	cpse	r25, r24
    287e:	21 e0       	ldi	r18, 0x01	; 1
    2880:	2a 8b       	std	Y+18, r18	; 0x12
    2882:	ce 01       	movw	r24, r28
    2884:	41 96       	adiw	r24, 0x11	; 17
    2886:	b0 c0       	rjmp	.+352    	; 0x29e8 <__mulsf3+0x1e8>
    2888:	2d 84       	ldd	r2, Y+13	; 0x0d
    288a:	3e 84       	ldd	r3, Y+14	; 0x0e
    288c:	4f 84       	ldd	r4, Y+15	; 0x0f
    288e:	58 88       	ldd	r5, Y+16	; 0x10
    2890:	6d 88       	ldd	r6, Y+21	; 0x15
    2892:	7e 88       	ldd	r7, Y+22	; 0x16
    2894:	8f 88       	ldd	r8, Y+23	; 0x17
    2896:	98 8c       	ldd	r9, Y+24	; 0x18
    2898:	ee 24       	eor	r14, r14
    289a:	ff 24       	eor	r15, r15
    289c:	87 01       	movw	r16, r14
    289e:	aa 24       	eor	r10, r10
    28a0:	bb 24       	eor	r11, r11
    28a2:	65 01       	movw	r12, r10
    28a4:	40 e0       	ldi	r20, 0x00	; 0
    28a6:	50 e0       	ldi	r21, 0x00	; 0
    28a8:	60 e0       	ldi	r22, 0x00	; 0
    28aa:	70 e0       	ldi	r23, 0x00	; 0
    28ac:	e0 e0       	ldi	r30, 0x00	; 0
    28ae:	f0 e0       	ldi	r31, 0x00	; 0
    28b0:	c1 01       	movw	r24, r2
    28b2:	81 70       	andi	r24, 0x01	; 1
    28b4:	90 70       	andi	r25, 0x00	; 0
    28b6:	89 2b       	or	r24, r25
    28b8:	e9 f0       	breq	.+58     	; 0x28f4 <__mulsf3+0xf4>
    28ba:	e6 0c       	add	r14, r6
    28bc:	f7 1c       	adc	r15, r7
    28be:	08 1d       	adc	r16, r8
    28c0:	19 1d       	adc	r17, r9
    28c2:	9a 01       	movw	r18, r20
    28c4:	ab 01       	movw	r20, r22
    28c6:	2a 0d       	add	r18, r10
    28c8:	3b 1d       	adc	r19, r11
    28ca:	4c 1d       	adc	r20, r12
    28cc:	5d 1d       	adc	r21, r13
    28ce:	80 e0       	ldi	r24, 0x00	; 0
    28d0:	90 e0       	ldi	r25, 0x00	; 0
    28d2:	a0 e0       	ldi	r26, 0x00	; 0
    28d4:	b0 e0       	ldi	r27, 0x00	; 0
    28d6:	e6 14       	cp	r14, r6
    28d8:	f7 04       	cpc	r15, r7
    28da:	08 05       	cpc	r16, r8
    28dc:	19 05       	cpc	r17, r9
    28de:	20 f4       	brcc	.+8      	; 0x28e8 <__mulsf3+0xe8>
    28e0:	81 e0       	ldi	r24, 0x01	; 1
    28e2:	90 e0       	ldi	r25, 0x00	; 0
    28e4:	a0 e0       	ldi	r26, 0x00	; 0
    28e6:	b0 e0       	ldi	r27, 0x00	; 0
    28e8:	ba 01       	movw	r22, r20
    28ea:	a9 01       	movw	r20, r18
    28ec:	48 0f       	add	r20, r24
    28ee:	59 1f       	adc	r21, r25
    28f0:	6a 1f       	adc	r22, r26
    28f2:	7b 1f       	adc	r23, r27
    28f4:	aa 0c       	add	r10, r10
    28f6:	bb 1c       	adc	r11, r11
    28f8:	cc 1c       	adc	r12, r12
    28fa:	dd 1c       	adc	r13, r13
    28fc:	97 fe       	sbrs	r9, 7
    28fe:	08 c0       	rjmp	.+16     	; 0x2910 <__mulsf3+0x110>
    2900:	81 e0       	ldi	r24, 0x01	; 1
    2902:	90 e0       	ldi	r25, 0x00	; 0
    2904:	a0 e0       	ldi	r26, 0x00	; 0
    2906:	b0 e0       	ldi	r27, 0x00	; 0
    2908:	a8 2a       	or	r10, r24
    290a:	b9 2a       	or	r11, r25
    290c:	ca 2a       	or	r12, r26
    290e:	db 2a       	or	r13, r27
    2910:	31 96       	adiw	r30, 0x01	; 1
    2912:	e0 32       	cpi	r30, 0x20	; 32
    2914:	f1 05       	cpc	r31, r1
    2916:	49 f0       	breq	.+18     	; 0x292a <__mulsf3+0x12a>
    2918:	66 0c       	add	r6, r6
    291a:	77 1c       	adc	r7, r7
    291c:	88 1c       	adc	r8, r8
    291e:	99 1c       	adc	r9, r9
    2920:	56 94       	lsr	r5
    2922:	47 94       	ror	r4
    2924:	37 94       	ror	r3
    2926:	27 94       	ror	r2
    2928:	c3 cf       	rjmp	.-122    	; 0x28b0 <__mulsf3+0xb0>
    292a:	fa 85       	ldd	r31, Y+10	; 0x0a
    292c:	ea 89       	ldd	r30, Y+18	; 0x12
    292e:	2b 89       	ldd	r18, Y+19	; 0x13
    2930:	3c 89       	ldd	r19, Y+20	; 0x14
    2932:	8b 85       	ldd	r24, Y+11	; 0x0b
    2934:	9c 85       	ldd	r25, Y+12	; 0x0c
    2936:	28 0f       	add	r18, r24
    2938:	39 1f       	adc	r19, r25
    293a:	2e 5f       	subi	r18, 0xFE	; 254
    293c:	3f 4f       	sbci	r19, 0xFF	; 255
    293e:	17 c0       	rjmp	.+46     	; 0x296e <__mulsf3+0x16e>
    2940:	ca 01       	movw	r24, r20
    2942:	81 70       	andi	r24, 0x01	; 1
    2944:	90 70       	andi	r25, 0x00	; 0
    2946:	89 2b       	or	r24, r25
    2948:	61 f0       	breq	.+24     	; 0x2962 <__mulsf3+0x162>
    294a:	16 95       	lsr	r17
    294c:	07 95       	ror	r16
    294e:	f7 94       	ror	r15
    2950:	e7 94       	ror	r14
    2952:	80 e0       	ldi	r24, 0x00	; 0
    2954:	90 e0       	ldi	r25, 0x00	; 0
    2956:	a0 e0       	ldi	r26, 0x00	; 0
    2958:	b0 e8       	ldi	r27, 0x80	; 128
    295a:	e8 2a       	or	r14, r24
    295c:	f9 2a       	or	r15, r25
    295e:	0a 2b       	or	r16, r26
    2960:	1b 2b       	or	r17, r27
    2962:	76 95       	lsr	r23
    2964:	67 95       	ror	r22
    2966:	57 95       	ror	r21
    2968:	47 95       	ror	r20
    296a:	2f 5f       	subi	r18, 0xFF	; 255
    296c:	3f 4f       	sbci	r19, 0xFF	; 255
    296e:	77 fd       	sbrc	r23, 7
    2970:	e7 cf       	rjmp	.-50     	; 0x2940 <__mulsf3+0x140>
    2972:	0c c0       	rjmp	.+24     	; 0x298c <__mulsf3+0x18c>
    2974:	44 0f       	add	r20, r20
    2976:	55 1f       	adc	r21, r21
    2978:	66 1f       	adc	r22, r22
    297a:	77 1f       	adc	r23, r23
    297c:	17 fd       	sbrc	r17, 7
    297e:	41 60       	ori	r20, 0x01	; 1
    2980:	ee 0c       	add	r14, r14
    2982:	ff 1c       	adc	r15, r15
    2984:	00 1f       	adc	r16, r16
    2986:	11 1f       	adc	r17, r17
    2988:	21 50       	subi	r18, 0x01	; 1
    298a:	30 40       	sbci	r19, 0x00	; 0
    298c:	40 30       	cpi	r20, 0x00	; 0
    298e:	90 e0       	ldi	r25, 0x00	; 0
    2990:	59 07       	cpc	r21, r25
    2992:	90 e0       	ldi	r25, 0x00	; 0
    2994:	69 07       	cpc	r22, r25
    2996:	90 e4       	ldi	r25, 0x40	; 64
    2998:	79 07       	cpc	r23, r25
    299a:	60 f3       	brcs	.-40     	; 0x2974 <__mulsf3+0x174>
    299c:	2b 8f       	std	Y+27, r18	; 0x1b
    299e:	3c 8f       	std	Y+28, r19	; 0x1c
    29a0:	db 01       	movw	r26, r22
    29a2:	ca 01       	movw	r24, r20
    29a4:	8f 77       	andi	r24, 0x7F	; 127
    29a6:	90 70       	andi	r25, 0x00	; 0
    29a8:	a0 70       	andi	r26, 0x00	; 0
    29aa:	b0 70       	andi	r27, 0x00	; 0
    29ac:	80 34       	cpi	r24, 0x40	; 64
    29ae:	91 05       	cpc	r25, r1
    29b0:	a1 05       	cpc	r26, r1
    29b2:	b1 05       	cpc	r27, r1
    29b4:	61 f4       	brne	.+24     	; 0x29ce <__mulsf3+0x1ce>
    29b6:	47 fd       	sbrc	r20, 7
    29b8:	0a c0       	rjmp	.+20     	; 0x29ce <__mulsf3+0x1ce>
    29ba:	e1 14       	cp	r14, r1
    29bc:	f1 04       	cpc	r15, r1
    29be:	01 05       	cpc	r16, r1
    29c0:	11 05       	cpc	r17, r1
    29c2:	29 f0       	breq	.+10     	; 0x29ce <__mulsf3+0x1ce>
    29c4:	40 5c       	subi	r20, 0xC0	; 192
    29c6:	5f 4f       	sbci	r21, 0xFF	; 255
    29c8:	6f 4f       	sbci	r22, 0xFF	; 255
    29ca:	7f 4f       	sbci	r23, 0xFF	; 255
    29cc:	40 78       	andi	r20, 0x80	; 128
    29ce:	1a 8e       	std	Y+26, r1	; 0x1a
    29d0:	fe 17       	cp	r31, r30
    29d2:	11 f0       	breq	.+4      	; 0x29d8 <__mulsf3+0x1d8>
    29d4:	81 e0       	ldi	r24, 0x01	; 1
    29d6:	8a 8f       	std	Y+26, r24	; 0x1a
    29d8:	4d 8f       	std	Y+29, r20	; 0x1d
    29da:	5e 8f       	std	Y+30, r21	; 0x1e
    29dc:	6f 8f       	std	Y+31, r22	; 0x1f
    29de:	78 a3       	std	Y+32, r23	; 0x20
    29e0:	83 e0       	ldi	r24, 0x03	; 3
    29e2:	89 8f       	std	Y+25, r24	; 0x19
    29e4:	ce 01       	movw	r24, r28
    29e6:	49 96       	adiw	r24, 0x19	; 25
    29e8:	0e 94 a6 16 	call	0x2d4c	; 0x2d4c <__pack_f>
    29ec:	a0 96       	adiw	r28, 0x20	; 32
    29ee:	e2 e1       	ldi	r30, 0x12	; 18
    29f0:	0c 94 8f 18 	jmp	0x311e	; 0x311e <__epilogue_restores__>

000029f4 <__gtsf2>:
    29f4:	a8 e1       	ldi	r26, 0x18	; 24
    29f6:	b0 e0       	ldi	r27, 0x00	; 0
    29f8:	e0 e0       	ldi	r30, 0x00	; 0
    29fa:	f5 e1       	ldi	r31, 0x15	; 21
    29fc:	0c 94 7f 18 	jmp	0x30fe	; 0x30fe <__prologue_saves__+0x18>
    2a00:	69 83       	std	Y+1, r22	; 0x01
    2a02:	7a 83       	std	Y+2, r23	; 0x02
    2a04:	8b 83       	std	Y+3, r24	; 0x03
    2a06:	9c 83       	std	Y+4, r25	; 0x04
    2a08:	2d 83       	std	Y+5, r18	; 0x05
    2a0a:	3e 83       	std	Y+6, r19	; 0x06
    2a0c:	4f 83       	std	Y+7, r20	; 0x07
    2a0e:	58 87       	std	Y+8, r21	; 0x08
    2a10:	89 e0       	ldi	r24, 0x09	; 9
    2a12:	e8 2e       	mov	r14, r24
    2a14:	f1 2c       	mov	r15, r1
    2a16:	ec 0e       	add	r14, r28
    2a18:	fd 1e       	adc	r15, r29
    2a1a:	ce 01       	movw	r24, r28
    2a1c:	01 96       	adiw	r24, 0x01	; 1
    2a1e:	b7 01       	movw	r22, r14
    2a20:	0e 94 7b 17 	call	0x2ef6	; 0x2ef6 <__unpack_f>
    2a24:	8e 01       	movw	r16, r28
    2a26:	0f 5e       	subi	r16, 0xEF	; 239
    2a28:	1f 4f       	sbci	r17, 0xFF	; 255
    2a2a:	ce 01       	movw	r24, r28
    2a2c:	05 96       	adiw	r24, 0x05	; 5
    2a2e:	b8 01       	movw	r22, r16
    2a30:	0e 94 7b 17 	call	0x2ef6	; 0x2ef6 <__unpack_f>
    2a34:	89 85       	ldd	r24, Y+9	; 0x09
    2a36:	82 30       	cpi	r24, 0x02	; 2
    2a38:	40 f0       	brcs	.+16     	; 0x2a4a <__gtsf2+0x56>
    2a3a:	89 89       	ldd	r24, Y+17	; 0x11
    2a3c:	82 30       	cpi	r24, 0x02	; 2
    2a3e:	28 f0       	brcs	.+10     	; 0x2a4a <__gtsf2+0x56>
    2a40:	c7 01       	movw	r24, r14
    2a42:	b8 01       	movw	r22, r16
    2a44:	0e 94 f3 17 	call	0x2fe6	; 0x2fe6 <__fpcmp_parts_f>
    2a48:	01 c0       	rjmp	.+2      	; 0x2a4c <__gtsf2+0x58>
    2a4a:	8f ef       	ldi	r24, 0xFF	; 255
    2a4c:	68 96       	adiw	r28, 0x18	; 24
    2a4e:	e6 e0       	ldi	r30, 0x06	; 6
    2a50:	0c 94 9b 18 	jmp	0x3136	; 0x3136 <__epilogue_restores__+0x18>

00002a54 <__gesf2>:
    2a54:	a8 e1       	ldi	r26, 0x18	; 24
    2a56:	b0 e0       	ldi	r27, 0x00	; 0
    2a58:	e0 e3       	ldi	r30, 0x30	; 48
    2a5a:	f5 e1       	ldi	r31, 0x15	; 21
    2a5c:	0c 94 7f 18 	jmp	0x30fe	; 0x30fe <__prologue_saves__+0x18>
    2a60:	69 83       	std	Y+1, r22	; 0x01
    2a62:	7a 83       	std	Y+2, r23	; 0x02
    2a64:	8b 83       	std	Y+3, r24	; 0x03
    2a66:	9c 83       	std	Y+4, r25	; 0x04
    2a68:	2d 83       	std	Y+5, r18	; 0x05
    2a6a:	3e 83       	std	Y+6, r19	; 0x06
    2a6c:	4f 83       	std	Y+7, r20	; 0x07
    2a6e:	58 87       	std	Y+8, r21	; 0x08
    2a70:	89 e0       	ldi	r24, 0x09	; 9
    2a72:	e8 2e       	mov	r14, r24
    2a74:	f1 2c       	mov	r15, r1
    2a76:	ec 0e       	add	r14, r28
    2a78:	fd 1e       	adc	r15, r29
    2a7a:	ce 01       	movw	r24, r28
    2a7c:	01 96       	adiw	r24, 0x01	; 1
    2a7e:	b7 01       	movw	r22, r14
    2a80:	0e 94 7b 17 	call	0x2ef6	; 0x2ef6 <__unpack_f>
    2a84:	8e 01       	movw	r16, r28
    2a86:	0f 5e       	subi	r16, 0xEF	; 239
    2a88:	1f 4f       	sbci	r17, 0xFF	; 255
    2a8a:	ce 01       	movw	r24, r28
    2a8c:	05 96       	adiw	r24, 0x05	; 5
    2a8e:	b8 01       	movw	r22, r16
    2a90:	0e 94 7b 17 	call	0x2ef6	; 0x2ef6 <__unpack_f>
    2a94:	89 85       	ldd	r24, Y+9	; 0x09
    2a96:	82 30       	cpi	r24, 0x02	; 2
    2a98:	40 f0       	brcs	.+16     	; 0x2aaa <__gesf2+0x56>
    2a9a:	89 89       	ldd	r24, Y+17	; 0x11
    2a9c:	82 30       	cpi	r24, 0x02	; 2
    2a9e:	28 f0       	brcs	.+10     	; 0x2aaa <__gesf2+0x56>
    2aa0:	c7 01       	movw	r24, r14
    2aa2:	b8 01       	movw	r22, r16
    2aa4:	0e 94 f3 17 	call	0x2fe6	; 0x2fe6 <__fpcmp_parts_f>
    2aa8:	01 c0       	rjmp	.+2      	; 0x2aac <__gesf2+0x58>
    2aaa:	8f ef       	ldi	r24, 0xFF	; 255
    2aac:	68 96       	adiw	r28, 0x18	; 24
    2aae:	e6 e0       	ldi	r30, 0x06	; 6
    2ab0:	0c 94 9b 18 	jmp	0x3136	; 0x3136 <__epilogue_restores__+0x18>

00002ab4 <__ltsf2>:
    2ab4:	a8 e1       	ldi	r26, 0x18	; 24
    2ab6:	b0 e0       	ldi	r27, 0x00	; 0
    2ab8:	e0 e6       	ldi	r30, 0x60	; 96
    2aba:	f5 e1       	ldi	r31, 0x15	; 21
    2abc:	0c 94 7f 18 	jmp	0x30fe	; 0x30fe <__prologue_saves__+0x18>
    2ac0:	69 83       	std	Y+1, r22	; 0x01
    2ac2:	7a 83       	std	Y+2, r23	; 0x02
    2ac4:	8b 83       	std	Y+3, r24	; 0x03
    2ac6:	9c 83       	std	Y+4, r25	; 0x04
    2ac8:	2d 83       	std	Y+5, r18	; 0x05
    2aca:	3e 83       	std	Y+6, r19	; 0x06
    2acc:	4f 83       	std	Y+7, r20	; 0x07
    2ace:	58 87       	std	Y+8, r21	; 0x08
    2ad0:	89 e0       	ldi	r24, 0x09	; 9
    2ad2:	e8 2e       	mov	r14, r24
    2ad4:	f1 2c       	mov	r15, r1
    2ad6:	ec 0e       	add	r14, r28
    2ad8:	fd 1e       	adc	r15, r29
    2ada:	ce 01       	movw	r24, r28
    2adc:	01 96       	adiw	r24, 0x01	; 1
    2ade:	b7 01       	movw	r22, r14
    2ae0:	0e 94 7b 17 	call	0x2ef6	; 0x2ef6 <__unpack_f>
    2ae4:	8e 01       	movw	r16, r28
    2ae6:	0f 5e       	subi	r16, 0xEF	; 239
    2ae8:	1f 4f       	sbci	r17, 0xFF	; 255
    2aea:	ce 01       	movw	r24, r28
    2aec:	05 96       	adiw	r24, 0x05	; 5
    2aee:	b8 01       	movw	r22, r16
    2af0:	0e 94 7b 17 	call	0x2ef6	; 0x2ef6 <__unpack_f>
    2af4:	89 85       	ldd	r24, Y+9	; 0x09
    2af6:	82 30       	cpi	r24, 0x02	; 2
    2af8:	40 f0       	brcs	.+16     	; 0x2b0a <__ltsf2+0x56>
    2afa:	89 89       	ldd	r24, Y+17	; 0x11
    2afc:	82 30       	cpi	r24, 0x02	; 2
    2afe:	28 f0       	brcs	.+10     	; 0x2b0a <__ltsf2+0x56>
    2b00:	c7 01       	movw	r24, r14
    2b02:	b8 01       	movw	r22, r16
    2b04:	0e 94 f3 17 	call	0x2fe6	; 0x2fe6 <__fpcmp_parts_f>
    2b08:	01 c0       	rjmp	.+2      	; 0x2b0c <__ltsf2+0x58>
    2b0a:	81 e0       	ldi	r24, 0x01	; 1
    2b0c:	68 96       	adiw	r28, 0x18	; 24
    2b0e:	e6 e0       	ldi	r30, 0x06	; 6
    2b10:	0c 94 9b 18 	jmp	0x3136	; 0x3136 <__epilogue_restores__+0x18>

00002b14 <__fixsfsi>:
    2b14:	ac e0       	ldi	r26, 0x0C	; 12
    2b16:	b0 e0       	ldi	r27, 0x00	; 0
    2b18:	e0 e9       	ldi	r30, 0x90	; 144
    2b1a:	f5 e1       	ldi	r31, 0x15	; 21
    2b1c:	0c 94 83 18 	jmp	0x3106	; 0x3106 <__prologue_saves__+0x20>
    2b20:	69 83       	std	Y+1, r22	; 0x01
    2b22:	7a 83       	std	Y+2, r23	; 0x02
    2b24:	8b 83       	std	Y+3, r24	; 0x03
    2b26:	9c 83       	std	Y+4, r25	; 0x04
    2b28:	ce 01       	movw	r24, r28
    2b2a:	01 96       	adiw	r24, 0x01	; 1
    2b2c:	be 01       	movw	r22, r28
    2b2e:	6b 5f       	subi	r22, 0xFB	; 251
    2b30:	7f 4f       	sbci	r23, 0xFF	; 255
    2b32:	0e 94 7b 17 	call	0x2ef6	; 0x2ef6 <__unpack_f>
    2b36:	8d 81       	ldd	r24, Y+5	; 0x05
    2b38:	82 30       	cpi	r24, 0x02	; 2
    2b3a:	61 f1       	breq	.+88     	; 0x2b94 <__fixsfsi+0x80>
    2b3c:	82 30       	cpi	r24, 0x02	; 2
    2b3e:	50 f1       	brcs	.+84     	; 0x2b94 <__fixsfsi+0x80>
    2b40:	84 30       	cpi	r24, 0x04	; 4
    2b42:	21 f4       	brne	.+8      	; 0x2b4c <__fixsfsi+0x38>
    2b44:	8e 81       	ldd	r24, Y+6	; 0x06
    2b46:	88 23       	and	r24, r24
    2b48:	51 f1       	breq	.+84     	; 0x2b9e <__fixsfsi+0x8a>
    2b4a:	2e c0       	rjmp	.+92     	; 0x2ba8 <__fixsfsi+0x94>
    2b4c:	2f 81       	ldd	r18, Y+7	; 0x07
    2b4e:	38 85       	ldd	r19, Y+8	; 0x08
    2b50:	37 fd       	sbrc	r19, 7
    2b52:	20 c0       	rjmp	.+64     	; 0x2b94 <__fixsfsi+0x80>
    2b54:	6e 81       	ldd	r22, Y+6	; 0x06
    2b56:	2f 31       	cpi	r18, 0x1F	; 31
    2b58:	31 05       	cpc	r19, r1
    2b5a:	1c f0       	brlt	.+6      	; 0x2b62 <__fixsfsi+0x4e>
    2b5c:	66 23       	and	r22, r22
    2b5e:	f9 f0       	breq	.+62     	; 0x2b9e <__fixsfsi+0x8a>
    2b60:	23 c0       	rjmp	.+70     	; 0x2ba8 <__fixsfsi+0x94>
    2b62:	8e e1       	ldi	r24, 0x1E	; 30
    2b64:	90 e0       	ldi	r25, 0x00	; 0
    2b66:	82 1b       	sub	r24, r18
    2b68:	93 0b       	sbc	r25, r19
    2b6a:	29 85       	ldd	r18, Y+9	; 0x09
    2b6c:	3a 85       	ldd	r19, Y+10	; 0x0a
    2b6e:	4b 85       	ldd	r20, Y+11	; 0x0b
    2b70:	5c 85       	ldd	r21, Y+12	; 0x0c
    2b72:	04 c0       	rjmp	.+8      	; 0x2b7c <__fixsfsi+0x68>
    2b74:	56 95       	lsr	r21
    2b76:	47 95       	ror	r20
    2b78:	37 95       	ror	r19
    2b7a:	27 95       	ror	r18
    2b7c:	8a 95       	dec	r24
    2b7e:	d2 f7       	brpl	.-12     	; 0x2b74 <__fixsfsi+0x60>
    2b80:	66 23       	and	r22, r22
    2b82:	b1 f0       	breq	.+44     	; 0x2bb0 <__fixsfsi+0x9c>
    2b84:	50 95       	com	r21
    2b86:	40 95       	com	r20
    2b88:	30 95       	com	r19
    2b8a:	21 95       	neg	r18
    2b8c:	3f 4f       	sbci	r19, 0xFF	; 255
    2b8e:	4f 4f       	sbci	r20, 0xFF	; 255
    2b90:	5f 4f       	sbci	r21, 0xFF	; 255
    2b92:	0e c0       	rjmp	.+28     	; 0x2bb0 <__fixsfsi+0x9c>
    2b94:	20 e0       	ldi	r18, 0x00	; 0
    2b96:	30 e0       	ldi	r19, 0x00	; 0
    2b98:	40 e0       	ldi	r20, 0x00	; 0
    2b9a:	50 e0       	ldi	r21, 0x00	; 0
    2b9c:	09 c0       	rjmp	.+18     	; 0x2bb0 <__fixsfsi+0x9c>
    2b9e:	2f ef       	ldi	r18, 0xFF	; 255
    2ba0:	3f ef       	ldi	r19, 0xFF	; 255
    2ba2:	4f ef       	ldi	r20, 0xFF	; 255
    2ba4:	5f e7       	ldi	r21, 0x7F	; 127
    2ba6:	04 c0       	rjmp	.+8      	; 0x2bb0 <__fixsfsi+0x9c>
    2ba8:	20 e0       	ldi	r18, 0x00	; 0
    2baa:	30 e0       	ldi	r19, 0x00	; 0
    2bac:	40 e0       	ldi	r20, 0x00	; 0
    2bae:	50 e8       	ldi	r21, 0x80	; 128
    2bb0:	b9 01       	movw	r22, r18
    2bb2:	ca 01       	movw	r24, r20
    2bb4:	2c 96       	adiw	r28, 0x0c	; 12
    2bb6:	e2 e0       	ldi	r30, 0x02	; 2
    2bb8:	0c 94 9f 18 	jmp	0x313e	; 0x313e <__epilogue_restores__+0x20>

00002bbc <__floatunsisf>:
    2bbc:	a8 e0       	ldi	r26, 0x08	; 8
    2bbe:	b0 e0       	ldi	r27, 0x00	; 0
    2bc0:	e4 ee       	ldi	r30, 0xE4	; 228
    2bc2:	f5 e1       	ldi	r31, 0x15	; 21
    2bc4:	0c 94 7b 18 	jmp	0x30f6	; 0x30f6 <__prologue_saves__+0x10>
    2bc8:	7b 01       	movw	r14, r22
    2bca:	8c 01       	movw	r16, r24
    2bcc:	61 15       	cp	r22, r1
    2bce:	71 05       	cpc	r23, r1
    2bd0:	81 05       	cpc	r24, r1
    2bd2:	91 05       	cpc	r25, r1
    2bd4:	19 f4       	brne	.+6      	; 0x2bdc <__floatunsisf+0x20>
    2bd6:	82 e0       	ldi	r24, 0x02	; 2
    2bd8:	89 83       	std	Y+1, r24	; 0x01
    2bda:	60 c0       	rjmp	.+192    	; 0x2c9c <__floatunsisf+0xe0>
    2bdc:	83 e0       	ldi	r24, 0x03	; 3
    2bde:	89 83       	std	Y+1, r24	; 0x01
    2be0:	8e e1       	ldi	r24, 0x1E	; 30
    2be2:	c8 2e       	mov	r12, r24
    2be4:	d1 2c       	mov	r13, r1
    2be6:	dc 82       	std	Y+4, r13	; 0x04
    2be8:	cb 82       	std	Y+3, r12	; 0x03
    2bea:	ed 82       	std	Y+5, r14	; 0x05
    2bec:	fe 82       	std	Y+6, r15	; 0x06
    2bee:	0f 83       	std	Y+7, r16	; 0x07
    2bf0:	18 87       	std	Y+8, r17	; 0x08
    2bf2:	c8 01       	movw	r24, r16
    2bf4:	b7 01       	movw	r22, r14
    2bf6:	0e 94 57 16 	call	0x2cae	; 0x2cae <__clzsi2>
    2bfa:	fc 01       	movw	r30, r24
    2bfc:	31 97       	sbiw	r30, 0x01	; 1
    2bfe:	f7 ff       	sbrs	r31, 7
    2c00:	3b c0       	rjmp	.+118    	; 0x2c78 <__floatunsisf+0xbc>
    2c02:	22 27       	eor	r18, r18
    2c04:	33 27       	eor	r19, r19
    2c06:	2e 1b       	sub	r18, r30
    2c08:	3f 0b       	sbc	r19, r31
    2c0a:	57 01       	movw	r10, r14
    2c0c:	68 01       	movw	r12, r16
    2c0e:	02 2e       	mov	r0, r18
    2c10:	04 c0       	rjmp	.+8      	; 0x2c1a <__floatunsisf+0x5e>
    2c12:	d6 94       	lsr	r13
    2c14:	c7 94       	ror	r12
    2c16:	b7 94       	ror	r11
    2c18:	a7 94       	ror	r10
    2c1a:	0a 94       	dec	r0
    2c1c:	d2 f7       	brpl	.-12     	; 0x2c12 <__floatunsisf+0x56>
    2c1e:	40 e0       	ldi	r20, 0x00	; 0
    2c20:	50 e0       	ldi	r21, 0x00	; 0
    2c22:	60 e0       	ldi	r22, 0x00	; 0
    2c24:	70 e0       	ldi	r23, 0x00	; 0
    2c26:	81 e0       	ldi	r24, 0x01	; 1
    2c28:	90 e0       	ldi	r25, 0x00	; 0
    2c2a:	a0 e0       	ldi	r26, 0x00	; 0
    2c2c:	b0 e0       	ldi	r27, 0x00	; 0
    2c2e:	04 c0       	rjmp	.+8      	; 0x2c38 <__floatunsisf+0x7c>
    2c30:	88 0f       	add	r24, r24
    2c32:	99 1f       	adc	r25, r25
    2c34:	aa 1f       	adc	r26, r26
    2c36:	bb 1f       	adc	r27, r27
    2c38:	2a 95       	dec	r18
    2c3a:	d2 f7       	brpl	.-12     	; 0x2c30 <__floatunsisf+0x74>
    2c3c:	01 97       	sbiw	r24, 0x01	; 1
    2c3e:	a1 09       	sbc	r26, r1
    2c40:	b1 09       	sbc	r27, r1
    2c42:	8e 21       	and	r24, r14
    2c44:	9f 21       	and	r25, r15
    2c46:	a0 23       	and	r26, r16
    2c48:	b1 23       	and	r27, r17
    2c4a:	00 97       	sbiw	r24, 0x00	; 0
    2c4c:	a1 05       	cpc	r26, r1
    2c4e:	b1 05       	cpc	r27, r1
    2c50:	21 f0       	breq	.+8      	; 0x2c5a <__floatunsisf+0x9e>
    2c52:	41 e0       	ldi	r20, 0x01	; 1
    2c54:	50 e0       	ldi	r21, 0x00	; 0
    2c56:	60 e0       	ldi	r22, 0x00	; 0
    2c58:	70 e0       	ldi	r23, 0x00	; 0
    2c5a:	4a 29       	or	r20, r10
    2c5c:	5b 29       	or	r21, r11
    2c5e:	6c 29       	or	r22, r12
    2c60:	7d 29       	or	r23, r13
    2c62:	4d 83       	std	Y+5, r20	; 0x05
    2c64:	5e 83       	std	Y+6, r21	; 0x06
    2c66:	6f 83       	std	Y+7, r22	; 0x07
    2c68:	78 87       	std	Y+8, r23	; 0x08
    2c6a:	8e e1       	ldi	r24, 0x1E	; 30
    2c6c:	90 e0       	ldi	r25, 0x00	; 0
    2c6e:	8e 1b       	sub	r24, r30
    2c70:	9f 0b       	sbc	r25, r31
    2c72:	9c 83       	std	Y+4, r25	; 0x04
    2c74:	8b 83       	std	Y+3, r24	; 0x03
    2c76:	12 c0       	rjmp	.+36     	; 0x2c9c <__floatunsisf+0xe0>
    2c78:	30 97       	sbiw	r30, 0x00	; 0
    2c7a:	81 f0       	breq	.+32     	; 0x2c9c <__floatunsisf+0xe0>
    2c7c:	0e 2e       	mov	r0, r30
    2c7e:	04 c0       	rjmp	.+8      	; 0x2c88 <__floatunsisf+0xcc>
    2c80:	ee 0c       	add	r14, r14
    2c82:	ff 1c       	adc	r15, r15
    2c84:	00 1f       	adc	r16, r16
    2c86:	11 1f       	adc	r17, r17
    2c88:	0a 94       	dec	r0
    2c8a:	d2 f7       	brpl	.-12     	; 0x2c80 <__floatunsisf+0xc4>
    2c8c:	ed 82       	std	Y+5, r14	; 0x05
    2c8e:	fe 82       	std	Y+6, r15	; 0x06
    2c90:	0f 83       	std	Y+7, r16	; 0x07
    2c92:	18 87       	std	Y+8, r17	; 0x08
    2c94:	ce 1a       	sub	r12, r30
    2c96:	df 0a       	sbc	r13, r31
    2c98:	dc 82       	std	Y+4, r13	; 0x04
    2c9a:	cb 82       	std	Y+3, r12	; 0x03
    2c9c:	1a 82       	std	Y+2, r1	; 0x02
    2c9e:	ce 01       	movw	r24, r28
    2ca0:	01 96       	adiw	r24, 0x01	; 1
    2ca2:	0e 94 a6 16 	call	0x2d4c	; 0x2d4c <__pack_f>
    2ca6:	28 96       	adiw	r28, 0x08	; 8
    2ca8:	ea e0       	ldi	r30, 0x0A	; 10
    2caa:	0c 94 97 18 	jmp	0x312e	; 0x312e <__epilogue_restores__+0x10>

00002cae <__clzsi2>:
    2cae:	ef 92       	push	r14
    2cb0:	ff 92       	push	r15
    2cb2:	0f 93       	push	r16
    2cb4:	1f 93       	push	r17
    2cb6:	7b 01       	movw	r14, r22
    2cb8:	8c 01       	movw	r16, r24
    2cba:	80 e0       	ldi	r24, 0x00	; 0
    2cbc:	e8 16       	cp	r14, r24
    2cbe:	80 e0       	ldi	r24, 0x00	; 0
    2cc0:	f8 06       	cpc	r15, r24
    2cc2:	81 e0       	ldi	r24, 0x01	; 1
    2cc4:	08 07       	cpc	r16, r24
    2cc6:	80 e0       	ldi	r24, 0x00	; 0
    2cc8:	18 07       	cpc	r17, r24
    2cca:	88 f4       	brcc	.+34     	; 0x2cee <__clzsi2+0x40>
    2ccc:	8f ef       	ldi	r24, 0xFF	; 255
    2cce:	e8 16       	cp	r14, r24
    2cd0:	f1 04       	cpc	r15, r1
    2cd2:	01 05       	cpc	r16, r1
    2cd4:	11 05       	cpc	r17, r1
    2cd6:	31 f0       	breq	.+12     	; 0x2ce4 <__clzsi2+0x36>
    2cd8:	28 f0       	brcs	.+10     	; 0x2ce4 <__clzsi2+0x36>
    2cda:	88 e0       	ldi	r24, 0x08	; 8
    2cdc:	90 e0       	ldi	r25, 0x00	; 0
    2cde:	a0 e0       	ldi	r26, 0x00	; 0
    2ce0:	b0 e0       	ldi	r27, 0x00	; 0
    2ce2:	17 c0       	rjmp	.+46     	; 0x2d12 <__clzsi2+0x64>
    2ce4:	80 e0       	ldi	r24, 0x00	; 0
    2ce6:	90 e0       	ldi	r25, 0x00	; 0
    2ce8:	a0 e0       	ldi	r26, 0x00	; 0
    2cea:	b0 e0       	ldi	r27, 0x00	; 0
    2cec:	12 c0       	rjmp	.+36     	; 0x2d12 <__clzsi2+0x64>
    2cee:	80 e0       	ldi	r24, 0x00	; 0
    2cf0:	e8 16       	cp	r14, r24
    2cf2:	80 e0       	ldi	r24, 0x00	; 0
    2cf4:	f8 06       	cpc	r15, r24
    2cf6:	80 e0       	ldi	r24, 0x00	; 0
    2cf8:	08 07       	cpc	r16, r24
    2cfa:	81 e0       	ldi	r24, 0x01	; 1
    2cfc:	18 07       	cpc	r17, r24
    2cfe:	28 f0       	brcs	.+10     	; 0x2d0a <__clzsi2+0x5c>
    2d00:	88 e1       	ldi	r24, 0x18	; 24
    2d02:	90 e0       	ldi	r25, 0x00	; 0
    2d04:	a0 e0       	ldi	r26, 0x00	; 0
    2d06:	b0 e0       	ldi	r27, 0x00	; 0
    2d08:	04 c0       	rjmp	.+8      	; 0x2d12 <__clzsi2+0x64>
    2d0a:	80 e1       	ldi	r24, 0x10	; 16
    2d0c:	90 e0       	ldi	r25, 0x00	; 0
    2d0e:	a0 e0       	ldi	r26, 0x00	; 0
    2d10:	b0 e0       	ldi	r27, 0x00	; 0
    2d12:	20 e2       	ldi	r18, 0x20	; 32
    2d14:	30 e0       	ldi	r19, 0x00	; 0
    2d16:	40 e0       	ldi	r20, 0x00	; 0
    2d18:	50 e0       	ldi	r21, 0x00	; 0
    2d1a:	28 1b       	sub	r18, r24
    2d1c:	39 0b       	sbc	r19, r25
    2d1e:	4a 0b       	sbc	r20, r26
    2d20:	5b 0b       	sbc	r21, r27
    2d22:	04 c0       	rjmp	.+8      	; 0x2d2c <__clzsi2+0x7e>
    2d24:	16 95       	lsr	r17
    2d26:	07 95       	ror	r16
    2d28:	f7 94       	ror	r15
    2d2a:	e7 94       	ror	r14
    2d2c:	8a 95       	dec	r24
    2d2e:	d2 f7       	brpl	.-12     	; 0x2d24 <__clzsi2+0x76>
    2d30:	f7 01       	movw	r30, r14
    2d32:	e8 5f       	subi	r30, 0xF8	; 248
    2d34:	fe 4f       	sbci	r31, 0xFE	; 254
    2d36:	80 81       	ld	r24, Z
    2d38:	28 1b       	sub	r18, r24
    2d3a:	31 09       	sbc	r19, r1
    2d3c:	41 09       	sbc	r20, r1
    2d3e:	51 09       	sbc	r21, r1
    2d40:	c9 01       	movw	r24, r18
    2d42:	1f 91       	pop	r17
    2d44:	0f 91       	pop	r16
    2d46:	ff 90       	pop	r15
    2d48:	ef 90       	pop	r14
    2d4a:	08 95       	ret

00002d4c <__pack_f>:
    2d4c:	df 92       	push	r13
    2d4e:	ef 92       	push	r14
    2d50:	ff 92       	push	r15
    2d52:	0f 93       	push	r16
    2d54:	1f 93       	push	r17
    2d56:	fc 01       	movw	r30, r24
    2d58:	e4 80       	ldd	r14, Z+4	; 0x04
    2d5a:	f5 80       	ldd	r15, Z+5	; 0x05
    2d5c:	06 81       	ldd	r16, Z+6	; 0x06
    2d5e:	17 81       	ldd	r17, Z+7	; 0x07
    2d60:	d1 80       	ldd	r13, Z+1	; 0x01
    2d62:	80 81       	ld	r24, Z
    2d64:	82 30       	cpi	r24, 0x02	; 2
    2d66:	48 f4       	brcc	.+18     	; 0x2d7a <__pack_f+0x2e>
    2d68:	80 e0       	ldi	r24, 0x00	; 0
    2d6a:	90 e0       	ldi	r25, 0x00	; 0
    2d6c:	a0 e1       	ldi	r26, 0x10	; 16
    2d6e:	b0 e0       	ldi	r27, 0x00	; 0
    2d70:	e8 2a       	or	r14, r24
    2d72:	f9 2a       	or	r15, r25
    2d74:	0a 2b       	or	r16, r26
    2d76:	1b 2b       	or	r17, r27
    2d78:	a5 c0       	rjmp	.+330    	; 0x2ec4 <__pack_f+0x178>
    2d7a:	84 30       	cpi	r24, 0x04	; 4
    2d7c:	09 f4       	brne	.+2      	; 0x2d80 <__pack_f+0x34>
    2d7e:	9f c0       	rjmp	.+318    	; 0x2ebe <__pack_f+0x172>
    2d80:	82 30       	cpi	r24, 0x02	; 2
    2d82:	21 f4       	brne	.+8      	; 0x2d8c <__pack_f+0x40>
    2d84:	ee 24       	eor	r14, r14
    2d86:	ff 24       	eor	r15, r15
    2d88:	87 01       	movw	r16, r14
    2d8a:	05 c0       	rjmp	.+10     	; 0x2d96 <__pack_f+0x4a>
    2d8c:	e1 14       	cp	r14, r1
    2d8e:	f1 04       	cpc	r15, r1
    2d90:	01 05       	cpc	r16, r1
    2d92:	11 05       	cpc	r17, r1
    2d94:	19 f4       	brne	.+6      	; 0x2d9c <__pack_f+0x50>
    2d96:	e0 e0       	ldi	r30, 0x00	; 0
    2d98:	f0 e0       	ldi	r31, 0x00	; 0
    2d9a:	96 c0       	rjmp	.+300    	; 0x2ec8 <__pack_f+0x17c>
    2d9c:	62 81       	ldd	r22, Z+2	; 0x02
    2d9e:	73 81       	ldd	r23, Z+3	; 0x03
    2da0:	9f ef       	ldi	r25, 0xFF	; 255
    2da2:	62 38       	cpi	r22, 0x82	; 130
    2da4:	79 07       	cpc	r23, r25
    2da6:	0c f0       	brlt	.+2      	; 0x2daa <__pack_f+0x5e>
    2da8:	5b c0       	rjmp	.+182    	; 0x2e60 <__pack_f+0x114>
    2daa:	22 e8       	ldi	r18, 0x82	; 130
    2dac:	3f ef       	ldi	r19, 0xFF	; 255
    2dae:	26 1b       	sub	r18, r22
    2db0:	37 0b       	sbc	r19, r23
    2db2:	2a 31       	cpi	r18, 0x1A	; 26
    2db4:	31 05       	cpc	r19, r1
    2db6:	2c f0       	brlt	.+10     	; 0x2dc2 <__pack_f+0x76>
    2db8:	20 e0       	ldi	r18, 0x00	; 0
    2dba:	30 e0       	ldi	r19, 0x00	; 0
    2dbc:	40 e0       	ldi	r20, 0x00	; 0
    2dbe:	50 e0       	ldi	r21, 0x00	; 0
    2dc0:	2a c0       	rjmp	.+84     	; 0x2e16 <__pack_f+0xca>
    2dc2:	b8 01       	movw	r22, r16
    2dc4:	a7 01       	movw	r20, r14
    2dc6:	02 2e       	mov	r0, r18
    2dc8:	04 c0       	rjmp	.+8      	; 0x2dd2 <__pack_f+0x86>
    2dca:	76 95       	lsr	r23
    2dcc:	67 95       	ror	r22
    2dce:	57 95       	ror	r21
    2dd0:	47 95       	ror	r20
    2dd2:	0a 94       	dec	r0
    2dd4:	d2 f7       	brpl	.-12     	; 0x2dca <__pack_f+0x7e>
    2dd6:	81 e0       	ldi	r24, 0x01	; 1
    2dd8:	90 e0       	ldi	r25, 0x00	; 0
    2dda:	a0 e0       	ldi	r26, 0x00	; 0
    2ddc:	b0 e0       	ldi	r27, 0x00	; 0
    2dde:	04 c0       	rjmp	.+8      	; 0x2de8 <__pack_f+0x9c>
    2de0:	88 0f       	add	r24, r24
    2de2:	99 1f       	adc	r25, r25
    2de4:	aa 1f       	adc	r26, r26
    2de6:	bb 1f       	adc	r27, r27
    2de8:	2a 95       	dec	r18
    2dea:	d2 f7       	brpl	.-12     	; 0x2de0 <__pack_f+0x94>
    2dec:	01 97       	sbiw	r24, 0x01	; 1
    2dee:	a1 09       	sbc	r26, r1
    2df0:	b1 09       	sbc	r27, r1
    2df2:	8e 21       	and	r24, r14
    2df4:	9f 21       	and	r25, r15
    2df6:	a0 23       	and	r26, r16
    2df8:	b1 23       	and	r27, r17
    2dfa:	00 97       	sbiw	r24, 0x00	; 0
    2dfc:	a1 05       	cpc	r26, r1
    2dfe:	b1 05       	cpc	r27, r1
    2e00:	21 f0       	breq	.+8      	; 0x2e0a <__pack_f+0xbe>
    2e02:	81 e0       	ldi	r24, 0x01	; 1
    2e04:	90 e0       	ldi	r25, 0x00	; 0
    2e06:	a0 e0       	ldi	r26, 0x00	; 0
    2e08:	b0 e0       	ldi	r27, 0x00	; 0
    2e0a:	9a 01       	movw	r18, r20
    2e0c:	ab 01       	movw	r20, r22
    2e0e:	28 2b       	or	r18, r24
    2e10:	39 2b       	or	r19, r25
    2e12:	4a 2b       	or	r20, r26
    2e14:	5b 2b       	or	r21, r27
    2e16:	da 01       	movw	r26, r20
    2e18:	c9 01       	movw	r24, r18
    2e1a:	8f 77       	andi	r24, 0x7F	; 127
    2e1c:	90 70       	andi	r25, 0x00	; 0
    2e1e:	a0 70       	andi	r26, 0x00	; 0
    2e20:	b0 70       	andi	r27, 0x00	; 0
    2e22:	80 34       	cpi	r24, 0x40	; 64
    2e24:	91 05       	cpc	r25, r1
    2e26:	a1 05       	cpc	r26, r1
    2e28:	b1 05       	cpc	r27, r1
    2e2a:	39 f4       	brne	.+14     	; 0x2e3a <__pack_f+0xee>
    2e2c:	27 ff       	sbrs	r18, 7
    2e2e:	09 c0       	rjmp	.+18     	; 0x2e42 <__pack_f+0xf6>
    2e30:	20 5c       	subi	r18, 0xC0	; 192
    2e32:	3f 4f       	sbci	r19, 0xFF	; 255
    2e34:	4f 4f       	sbci	r20, 0xFF	; 255
    2e36:	5f 4f       	sbci	r21, 0xFF	; 255
    2e38:	04 c0       	rjmp	.+8      	; 0x2e42 <__pack_f+0xf6>
    2e3a:	21 5c       	subi	r18, 0xC1	; 193
    2e3c:	3f 4f       	sbci	r19, 0xFF	; 255
    2e3e:	4f 4f       	sbci	r20, 0xFF	; 255
    2e40:	5f 4f       	sbci	r21, 0xFF	; 255
    2e42:	e0 e0       	ldi	r30, 0x00	; 0
    2e44:	f0 e0       	ldi	r31, 0x00	; 0
    2e46:	20 30       	cpi	r18, 0x00	; 0
    2e48:	a0 e0       	ldi	r26, 0x00	; 0
    2e4a:	3a 07       	cpc	r19, r26
    2e4c:	a0 e0       	ldi	r26, 0x00	; 0
    2e4e:	4a 07       	cpc	r20, r26
    2e50:	a0 e4       	ldi	r26, 0x40	; 64
    2e52:	5a 07       	cpc	r21, r26
    2e54:	10 f0       	brcs	.+4      	; 0x2e5a <__pack_f+0x10e>
    2e56:	e1 e0       	ldi	r30, 0x01	; 1
    2e58:	f0 e0       	ldi	r31, 0x00	; 0
    2e5a:	79 01       	movw	r14, r18
    2e5c:	8a 01       	movw	r16, r20
    2e5e:	27 c0       	rjmp	.+78     	; 0x2eae <__pack_f+0x162>
    2e60:	60 38       	cpi	r22, 0x80	; 128
    2e62:	71 05       	cpc	r23, r1
    2e64:	64 f5       	brge	.+88     	; 0x2ebe <__pack_f+0x172>
    2e66:	fb 01       	movw	r30, r22
    2e68:	e1 58       	subi	r30, 0x81	; 129
    2e6a:	ff 4f       	sbci	r31, 0xFF	; 255
    2e6c:	d8 01       	movw	r26, r16
    2e6e:	c7 01       	movw	r24, r14
    2e70:	8f 77       	andi	r24, 0x7F	; 127
    2e72:	90 70       	andi	r25, 0x00	; 0
    2e74:	a0 70       	andi	r26, 0x00	; 0
    2e76:	b0 70       	andi	r27, 0x00	; 0
    2e78:	80 34       	cpi	r24, 0x40	; 64
    2e7a:	91 05       	cpc	r25, r1
    2e7c:	a1 05       	cpc	r26, r1
    2e7e:	b1 05       	cpc	r27, r1
    2e80:	39 f4       	brne	.+14     	; 0x2e90 <__pack_f+0x144>
    2e82:	e7 fe       	sbrs	r14, 7
    2e84:	0d c0       	rjmp	.+26     	; 0x2ea0 <__pack_f+0x154>
    2e86:	80 e4       	ldi	r24, 0x40	; 64
    2e88:	90 e0       	ldi	r25, 0x00	; 0
    2e8a:	a0 e0       	ldi	r26, 0x00	; 0
    2e8c:	b0 e0       	ldi	r27, 0x00	; 0
    2e8e:	04 c0       	rjmp	.+8      	; 0x2e98 <__pack_f+0x14c>
    2e90:	8f e3       	ldi	r24, 0x3F	; 63
    2e92:	90 e0       	ldi	r25, 0x00	; 0
    2e94:	a0 e0       	ldi	r26, 0x00	; 0
    2e96:	b0 e0       	ldi	r27, 0x00	; 0
    2e98:	e8 0e       	add	r14, r24
    2e9a:	f9 1e       	adc	r15, r25
    2e9c:	0a 1f       	adc	r16, r26
    2e9e:	1b 1f       	adc	r17, r27
    2ea0:	17 ff       	sbrs	r17, 7
    2ea2:	05 c0       	rjmp	.+10     	; 0x2eae <__pack_f+0x162>
    2ea4:	16 95       	lsr	r17
    2ea6:	07 95       	ror	r16
    2ea8:	f7 94       	ror	r15
    2eaa:	e7 94       	ror	r14
    2eac:	31 96       	adiw	r30, 0x01	; 1
    2eae:	87 e0       	ldi	r24, 0x07	; 7
    2eb0:	16 95       	lsr	r17
    2eb2:	07 95       	ror	r16
    2eb4:	f7 94       	ror	r15
    2eb6:	e7 94       	ror	r14
    2eb8:	8a 95       	dec	r24
    2eba:	d1 f7       	brne	.-12     	; 0x2eb0 <__pack_f+0x164>
    2ebc:	05 c0       	rjmp	.+10     	; 0x2ec8 <__pack_f+0x17c>
    2ebe:	ee 24       	eor	r14, r14
    2ec0:	ff 24       	eor	r15, r15
    2ec2:	87 01       	movw	r16, r14
    2ec4:	ef ef       	ldi	r30, 0xFF	; 255
    2ec6:	f0 e0       	ldi	r31, 0x00	; 0
    2ec8:	6e 2f       	mov	r22, r30
    2eca:	67 95       	ror	r22
    2ecc:	66 27       	eor	r22, r22
    2ece:	67 95       	ror	r22
    2ed0:	90 2f       	mov	r25, r16
    2ed2:	9f 77       	andi	r25, 0x7F	; 127
    2ed4:	d7 94       	ror	r13
    2ed6:	dd 24       	eor	r13, r13
    2ed8:	d7 94       	ror	r13
    2eda:	8e 2f       	mov	r24, r30
    2edc:	86 95       	lsr	r24
    2ede:	49 2f       	mov	r20, r25
    2ee0:	46 2b       	or	r20, r22
    2ee2:	58 2f       	mov	r21, r24
    2ee4:	5d 29       	or	r21, r13
    2ee6:	b7 01       	movw	r22, r14
    2ee8:	ca 01       	movw	r24, r20
    2eea:	1f 91       	pop	r17
    2eec:	0f 91       	pop	r16
    2eee:	ff 90       	pop	r15
    2ef0:	ef 90       	pop	r14
    2ef2:	df 90       	pop	r13
    2ef4:	08 95       	ret

00002ef6 <__unpack_f>:
    2ef6:	fc 01       	movw	r30, r24
    2ef8:	db 01       	movw	r26, r22
    2efa:	40 81       	ld	r20, Z
    2efc:	51 81       	ldd	r21, Z+1	; 0x01
    2efe:	22 81       	ldd	r18, Z+2	; 0x02
    2f00:	62 2f       	mov	r22, r18
    2f02:	6f 77       	andi	r22, 0x7F	; 127
    2f04:	70 e0       	ldi	r23, 0x00	; 0
    2f06:	22 1f       	adc	r18, r18
    2f08:	22 27       	eor	r18, r18
    2f0a:	22 1f       	adc	r18, r18
    2f0c:	93 81       	ldd	r25, Z+3	; 0x03
    2f0e:	89 2f       	mov	r24, r25
    2f10:	88 0f       	add	r24, r24
    2f12:	82 2b       	or	r24, r18
    2f14:	28 2f       	mov	r18, r24
    2f16:	30 e0       	ldi	r19, 0x00	; 0
    2f18:	99 1f       	adc	r25, r25
    2f1a:	99 27       	eor	r25, r25
    2f1c:	99 1f       	adc	r25, r25
    2f1e:	11 96       	adiw	r26, 0x01	; 1
    2f20:	9c 93       	st	X, r25
    2f22:	11 97       	sbiw	r26, 0x01	; 1
    2f24:	21 15       	cp	r18, r1
    2f26:	31 05       	cpc	r19, r1
    2f28:	a9 f5       	brne	.+106    	; 0x2f94 <__unpack_f+0x9e>
    2f2a:	41 15       	cp	r20, r1
    2f2c:	51 05       	cpc	r21, r1
    2f2e:	61 05       	cpc	r22, r1
    2f30:	71 05       	cpc	r23, r1
    2f32:	11 f4       	brne	.+4      	; 0x2f38 <__unpack_f+0x42>
    2f34:	82 e0       	ldi	r24, 0x02	; 2
    2f36:	37 c0       	rjmp	.+110    	; 0x2fa6 <__unpack_f+0xb0>
    2f38:	82 e8       	ldi	r24, 0x82	; 130
    2f3a:	9f ef       	ldi	r25, 0xFF	; 255
    2f3c:	13 96       	adiw	r26, 0x03	; 3
    2f3e:	9c 93       	st	X, r25
    2f40:	8e 93       	st	-X, r24
    2f42:	12 97       	sbiw	r26, 0x02	; 2
    2f44:	9a 01       	movw	r18, r20
    2f46:	ab 01       	movw	r20, r22
    2f48:	67 e0       	ldi	r22, 0x07	; 7
    2f4a:	22 0f       	add	r18, r18
    2f4c:	33 1f       	adc	r19, r19
    2f4e:	44 1f       	adc	r20, r20
    2f50:	55 1f       	adc	r21, r21
    2f52:	6a 95       	dec	r22
    2f54:	d1 f7       	brne	.-12     	; 0x2f4a <__unpack_f+0x54>
    2f56:	83 e0       	ldi	r24, 0x03	; 3
    2f58:	8c 93       	st	X, r24
    2f5a:	0d c0       	rjmp	.+26     	; 0x2f76 <__unpack_f+0x80>
    2f5c:	22 0f       	add	r18, r18
    2f5e:	33 1f       	adc	r19, r19
    2f60:	44 1f       	adc	r20, r20
    2f62:	55 1f       	adc	r21, r21
    2f64:	12 96       	adiw	r26, 0x02	; 2
    2f66:	8d 91       	ld	r24, X+
    2f68:	9c 91       	ld	r25, X
    2f6a:	13 97       	sbiw	r26, 0x03	; 3
    2f6c:	01 97       	sbiw	r24, 0x01	; 1
    2f6e:	13 96       	adiw	r26, 0x03	; 3
    2f70:	9c 93       	st	X, r25
    2f72:	8e 93       	st	-X, r24
    2f74:	12 97       	sbiw	r26, 0x02	; 2
    2f76:	20 30       	cpi	r18, 0x00	; 0
    2f78:	80 e0       	ldi	r24, 0x00	; 0
    2f7a:	38 07       	cpc	r19, r24
    2f7c:	80 e0       	ldi	r24, 0x00	; 0
    2f7e:	48 07       	cpc	r20, r24
    2f80:	80 e4       	ldi	r24, 0x40	; 64
    2f82:	58 07       	cpc	r21, r24
    2f84:	58 f3       	brcs	.-42     	; 0x2f5c <__unpack_f+0x66>
    2f86:	14 96       	adiw	r26, 0x04	; 4
    2f88:	2d 93       	st	X+, r18
    2f8a:	3d 93       	st	X+, r19
    2f8c:	4d 93       	st	X+, r20
    2f8e:	5c 93       	st	X, r21
    2f90:	17 97       	sbiw	r26, 0x07	; 7
    2f92:	08 95       	ret
    2f94:	2f 3f       	cpi	r18, 0xFF	; 255
    2f96:	31 05       	cpc	r19, r1
    2f98:	79 f4       	brne	.+30     	; 0x2fb8 <__unpack_f+0xc2>
    2f9a:	41 15       	cp	r20, r1
    2f9c:	51 05       	cpc	r21, r1
    2f9e:	61 05       	cpc	r22, r1
    2fa0:	71 05       	cpc	r23, r1
    2fa2:	19 f4       	brne	.+6      	; 0x2faa <__unpack_f+0xb4>
    2fa4:	84 e0       	ldi	r24, 0x04	; 4
    2fa6:	8c 93       	st	X, r24
    2fa8:	08 95       	ret
    2faa:	64 ff       	sbrs	r22, 4
    2fac:	03 c0       	rjmp	.+6      	; 0x2fb4 <__unpack_f+0xbe>
    2fae:	81 e0       	ldi	r24, 0x01	; 1
    2fb0:	8c 93       	st	X, r24
    2fb2:	12 c0       	rjmp	.+36     	; 0x2fd8 <__unpack_f+0xe2>
    2fb4:	1c 92       	st	X, r1
    2fb6:	10 c0       	rjmp	.+32     	; 0x2fd8 <__unpack_f+0xe2>
    2fb8:	2f 57       	subi	r18, 0x7F	; 127
    2fba:	30 40       	sbci	r19, 0x00	; 0
    2fbc:	13 96       	adiw	r26, 0x03	; 3
    2fbe:	3c 93       	st	X, r19
    2fc0:	2e 93       	st	-X, r18
    2fc2:	12 97       	sbiw	r26, 0x02	; 2
    2fc4:	83 e0       	ldi	r24, 0x03	; 3
    2fc6:	8c 93       	st	X, r24
    2fc8:	87 e0       	ldi	r24, 0x07	; 7
    2fca:	44 0f       	add	r20, r20
    2fcc:	55 1f       	adc	r21, r21
    2fce:	66 1f       	adc	r22, r22
    2fd0:	77 1f       	adc	r23, r23
    2fd2:	8a 95       	dec	r24
    2fd4:	d1 f7       	brne	.-12     	; 0x2fca <__unpack_f+0xd4>
    2fd6:	70 64       	ori	r23, 0x40	; 64
    2fd8:	14 96       	adiw	r26, 0x04	; 4
    2fda:	4d 93       	st	X+, r20
    2fdc:	5d 93       	st	X+, r21
    2fde:	6d 93       	st	X+, r22
    2fe0:	7c 93       	st	X, r23
    2fe2:	17 97       	sbiw	r26, 0x07	; 7
    2fe4:	08 95       	ret

00002fe6 <__fpcmp_parts_f>:
    2fe6:	1f 93       	push	r17
    2fe8:	dc 01       	movw	r26, r24
    2fea:	fb 01       	movw	r30, r22
    2fec:	9c 91       	ld	r25, X
    2fee:	92 30       	cpi	r25, 0x02	; 2
    2ff0:	08 f4       	brcc	.+2      	; 0x2ff4 <__fpcmp_parts_f+0xe>
    2ff2:	47 c0       	rjmp	.+142    	; 0x3082 <__fpcmp_parts_f+0x9c>
    2ff4:	80 81       	ld	r24, Z
    2ff6:	82 30       	cpi	r24, 0x02	; 2
    2ff8:	08 f4       	brcc	.+2      	; 0x2ffc <__fpcmp_parts_f+0x16>
    2ffa:	43 c0       	rjmp	.+134    	; 0x3082 <__fpcmp_parts_f+0x9c>
    2ffc:	94 30       	cpi	r25, 0x04	; 4
    2ffe:	51 f4       	brne	.+20     	; 0x3014 <__fpcmp_parts_f+0x2e>
    3000:	11 96       	adiw	r26, 0x01	; 1
    3002:	1c 91       	ld	r17, X
    3004:	84 30       	cpi	r24, 0x04	; 4
    3006:	99 f5       	brne	.+102    	; 0x306e <__fpcmp_parts_f+0x88>
    3008:	81 81       	ldd	r24, Z+1	; 0x01
    300a:	68 2f       	mov	r22, r24
    300c:	70 e0       	ldi	r23, 0x00	; 0
    300e:	61 1b       	sub	r22, r17
    3010:	71 09       	sbc	r23, r1
    3012:	3f c0       	rjmp	.+126    	; 0x3092 <__fpcmp_parts_f+0xac>
    3014:	84 30       	cpi	r24, 0x04	; 4
    3016:	21 f0       	breq	.+8      	; 0x3020 <__fpcmp_parts_f+0x3a>
    3018:	92 30       	cpi	r25, 0x02	; 2
    301a:	31 f4       	brne	.+12     	; 0x3028 <__fpcmp_parts_f+0x42>
    301c:	82 30       	cpi	r24, 0x02	; 2
    301e:	b9 f1       	breq	.+110    	; 0x308e <__fpcmp_parts_f+0xa8>
    3020:	81 81       	ldd	r24, Z+1	; 0x01
    3022:	88 23       	and	r24, r24
    3024:	89 f1       	breq	.+98     	; 0x3088 <__fpcmp_parts_f+0xa2>
    3026:	2d c0       	rjmp	.+90     	; 0x3082 <__fpcmp_parts_f+0x9c>
    3028:	11 96       	adiw	r26, 0x01	; 1
    302a:	1c 91       	ld	r17, X
    302c:	11 97       	sbiw	r26, 0x01	; 1
    302e:	82 30       	cpi	r24, 0x02	; 2
    3030:	f1 f0       	breq	.+60     	; 0x306e <__fpcmp_parts_f+0x88>
    3032:	81 81       	ldd	r24, Z+1	; 0x01
    3034:	18 17       	cp	r17, r24
    3036:	d9 f4       	brne	.+54     	; 0x306e <__fpcmp_parts_f+0x88>
    3038:	12 96       	adiw	r26, 0x02	; 2
    303a:	2d 91       	ld	r18, X+
    303c:	3c 91       	ld	r19, X
    303e:	13 97       	sbiw	r26, 0x03	; 3
    3040:	82 81       	ldd	r24, Z+2	; 0x02
    3042:	93 81       	ldd	r25, Z+3	; 0x03
    3044:	82 17       	cp	r24, r18
    3046:	93 07       	cpc	r25, r19
    3048:	94 f0       	brlt	.+36     	; 0x306e <__fpcmp_parts_f+0x88>
    304a:	28 17       	cp	r18, r24
    304c:	39 07       	cpc	r19, r25
    304e:	bc f0       	brlt	.+46     	; 0x307e <__fpcmp_parts_f+0x98>
    3050:	14 96       	adiw	r26, 0x04	; 4
    3052:	8d 91       	ld	r24, X+
    3054:	9d 91       	ld	r25, X+
    3056:	0d 90       	ld	r0, X+
    3058:	bc 91       	ld	r27, X
    305a:	a0 2d       	mov	r26, r0
    305c:	24 81       	ldd	r18, Z+4	; 0x04
    305e:	35 81       	ldd	r19, Z+5	; 0x05
    3060:	46 81       	ldd	r20, Z+6	; 0x06
    3062:	57 81       	ldd	r21, Z+7	; 0x07
    3064:	28 17       	cp	r18, r24
    3066:	39 07       	cpc	r19, r25
    3068:	4a 07       	cpc	r20, r26
    306a:	5b 07       	cpc	r21, r27
    306c:	18 f4       	brcc	.+6      	; 0x3074 <__fpcmp_parts_f+0x8e>
    306e:	11 23       	and	r17, r17
    3070:	41 f0       	breq	.+16     	; 0x3082 <__fpcmp_parts_f+0x9c>
    3072:	0a c0       	rjmp	.+20     	; 0x3088 <__fpcmp_parts_f+0xa2>
    3074:	82 17       	cp	r24, r18
    3076:	93 07       	cpc	r25, r19
    3078:	a4 07       	cpc	r26, r20
    307a:	b5 07       	cpc	r27, r21
    307c:	40 f4       	brcc	.+16     	; 0x308e <__fpcmp_parts_f+0xa8>
    307e:	11 23       	and	r17, r17
    3080:	19 f0       	breq	.+6      	; 0x3088 <__fpcmp_parts_f+0xa2>
    3082:	61 e0       	ldi	r22, 0x01	; 1
    3084:	70 e0       	ldi	r23, 0x00	; 0
    3086:	05 c0       	rjmp	.+10     	; 0x3092 <__fpcmp_parts_f+0xac>
    3088:	6f ef       	ldi	r22, 0xFF	; 255
    308a:	7f ef       	ldi	r23, 0xFF	; 255
    308c:	02 c0       	rjmp	.+4      	; 0x3092 <__fpcmp_parts_f+0xac>
    308e:	60 e0       	ldi	r22, 0x00	; 0
    3090:	70 e0       	ldi	r23, 0x00	; 0
    3092:	cb 01       	movw	r24, r22
    3094:	1f 91       	pop	r17
    3096:	08 95       	ret

00003098 <__divmodhi4>:
    3098:	97 fb       	bst	r25, 7
    309a:	09 2e       	mov	r0, r25
    309c:	07 26       	eor	r0, r23
    309e:	0a d0       	rcall	.+20     	; 0x30b4 <__divmodhi4_neg1>
    30a0:	77 fd       	sbrc	r23, 7
    30a2:	04 d0       	rcall	.+8      	; 0x30ac <__divmodhi4_neg2>
    30a4:	0c d0       	rcall	.+24     	; 0x30be <__udivmodhi4>
    30a6:	06 d0       	rcall	.+12     	; 0x30b4 <__divmodhi4_neg1>
    30a8:	00 20       	and	r0, r0
    30aa:	1a f4       	brpl	.+6      	; 0x30b2 <__divmodhi4_exit>

000030ac <__divmodhi4_neg2>:
    30ac:	70 95       	com	r23
    30ae:	61 95       	neg	r22
    30b0:	7f 4f       	sbci	r23, 0xFF	; 255

000030b2 <__divmodhi4_exit>:
    30b2:	08 95       	ret

000030b4 <__divmodhi4_neg1>:
    30b4:	f6 f7       	brtc	.-4      	; 0x30b2 <__divmodhi4_exit>
    30b6:	90 95       	com	r25
    30b8:	81 95       	neg	r24
    30ba:	9f 4f       	sbci	r25, 0xFF	; 255
    30bc:	08 95       	ret

000030be <__udivmodhi4>:
    30be:	aa 1b       	sub	r26, r26
    30c0:	bb 1b       	sub	r27, r27
    30c2:	51 e1       	ldi	r21, 0x11	; 17
    30c4:	07 c0       	rjmp	.+14     	; 0x30d4 <__udivmodhi4_ep>

000030c6 <__udivmodhi4_loop>:
    30c6:	aa 1f       	adc	r26, r26
    30c8:	bb 1f       	adc	r27, r27
    30ca:	a6 17       	cp	r26, r22
    30cc:	b7 07       	cpc	r27, r23
    30ce:	10 f0       	brcs	.+4      	; 0x30d4 <__udivmodhi4_ep>
    30d0:	a6 1b       	sub	r26, r22
    30d2:	b7 0b       	sbc	r27, r23

000030d4 <__udivmodhi4_ep>:
    30d4:	88 1f       	adc	r24, r24
    30d6:	99 1f       	adc	r25, r25
    30d8:	5a 95       	dec	r21
    30da:	a9 f7       	brne	.-22     	; 0x30c6 <__udivmodhi4_loop>
    30dc:	80 95       	com	r24
    30de:	90 95       	com	r25
    30e0:	bc 01       	movw	r22, r24
    30e2:	cd 01       	movw	r24, r26
    30e4:	08 95       	ret

000030e6 <__prologue_saves__>:
    30e6:	2f 92       	push	r2
    30e8:	3f 92       	push	r3
    30ea:	4f 92       	push	r4
    30ec:	5f 92       	push	r5
    30ee:	6f 92       	push	r6
    30f0:	7f 92       	push	r7
    30f2:	8f 92       	push	r8
    30f4:	9f 92       	push	r9
    30f6:	af 92       	push	r10
    30f8:	bf 92       	push	r11
    30fa:	cf 92       	push	r12
    30fc:	df 92       	push	r13
    30fe:	ef 92       	push	r14
    3100:	ff 92       	push	r15
    3102:	0f 93       	push	r16
    3104:	1f 93       	push	r17
    3106:	cf 93       	push	r28
    3108:	df 93       	push	r29
    310a:	cd b7       	in	r28, 0x3d	; 61
    310c:	de b7       	in	r29, 0x3e	; 62
    310e:	ca 1b       	sub	r28, r26
    3110:	db 0b       	sbc	r29, r27
    3112:	0f b6       	in	r0, 0x3f	; 63
    3114:	f8 94       	cli
    3116:	de bf       	out	0x3e, r29	; 62
    3118:	0f be       	out	0x3f, r0	; 63
    311a:	cd bf       	out	0x3d, r28	; 61
    311c:	09 94       	ijmp

0000311e <__epilogue_restores__>:
    311e:	2a 88       	ldd	r2, Y+18	; 0x12
    3120:	39 88       	ldd	r3, Y+17	; 0x11
    3122:	48 88       	ldd	r4, Y+16	; 0x10
    3124:	5f 84       	ldd	r5, Y+15	; 0x0f
    3126:	6e 84       	ldd	r6, Y+14	; 0x0e
    3128:	7d 84       	ldd	r7, Y+13	; 0x0d
    312a:	8c 84       	ldd	r8, Y+12	; 0x0c
    312c:	9b 84       	ldd	r9, Y+11	; 0x0b
    312e:	aa 84       	ldd	r10, Y+10	; 0x0a
    3130:	b9 84       	ldd	r11, Y+9	; 0x09
    3132:	c8 84       	ldd	r12, Y+8	; 0x08
    3134:	df 80       	ldd	r13, Y+7	; 0x07
    3136:	ee 80       	ldd	r14, Y+6	; 0x06
    3138:	fd 80       	ldd	r15, Y+5	; 0x05
    313a:	0c 81       	ldd	r16, Y+4	; 0x04
    313c:	1b 81       	ldd	r17, Y+3	; 0x03
    313e:	aa 81       	ldd	r26, Y+2	; 0x02
    3140:	b9 81       	ldd	r27, Y+1	; 0x01
    3142:	ce 0f       	add	r28, r30
    3144:	d1 1d       	adc	r29, r1
    3146:	0f b6       	in	r0, 0x3f	; 63
    3148:	f8 94       	cli
    314a:	de bf       	out	0x3e, r29	; 62
    314c:	0f be       	out	0x3f, r0	; 63
    314e:	cd bf       	out	0x3d, r28	; 61
    3150:	ed 01       	movw	r28, r26
    3152:	08 95       	ret

00003154 <_exit>:
    3154:	f8 94       	cli

00003156 <__stop_program>:
    3156:	ff cf       	rjmp	.-2      	; 0x3156 <__stop_program>
